
bios.elf:     file format elf32-littlearm

Disassembly of section .text:

00030000 <_entry>:
   30000:	eb0000ef 	bl	303c4 <start_main>

00030004 <l>:
   30004:	eafffffe 	b	30004 <l>

00030008 <ram_modes>:
   30008:	00000808 	andeq	r0, r0, r8, lsl #16
   3000c:	40302010 	eormis	r2, r0, r0, lsl r0

00030010 <testram>:
   30010:	e3a0a055 	mov	r10, #85	; 0x55
   30014:	e38aacaa 	orr	r10, r10, #43520	; 0xaa00
   30018:	e18aa80a 	orr	r10, r10, r10, lsl #16
   3001c:	e580a000 	str	r10, [r0]
   30020:	e1e0a00a 	mvn	r10, r10
   30024:	e581a000 	str	r10, [r1]
   30028:	e1e0a00a 	mvn	r10, r10
   3002c:	e590b000 	ldr	r11, [r0]
   30030:	e13a000b 	teq	r10, r11
   30034:	1a000006 	bne	30054 <testram+0x44>
   30038:	e1e0a00a 	mvn	r10, r10
   3003c:	e580a000 	str	r10, [r0]
   30040:	e1e0a00a 	mvn	r10, r10
   30044:	e581a000 	str	r10, [r1]
   30048:	e1e0a00a 	mvn	r10, r10
   3004c:	e590b000 	ldr	r11, [r0]
   30050:	e13a000b 	teq	r10, r11
   30054:	e1a0f00e 	mov	pc, lr

00030058 <ser_init>:
   30058:	e3a00442 	mov	r0, #1107296256	; 0x42000000
   3005c:	e3800e16 	orr	r0, r0, #352	; 0x160
   30060:	e3a01000 	mov	r1, #0	; 0x0
   30064:	e5801014 	str	r1, [r0, #20]
   30068:	e3a02010 	mov	r2, #16	; 0x10
   3006c:	e5801000 	str	r1, [r0]
   30070:	e2522001 	subs	r2, r2, #1	; 0x1
   30074:	1afffffc 	bne	3006c <ser_init+0x14>
   30078:	e3a01001 	mov	r1, #1	; 0x1
   3007c:	e5801014 	str	r1, [r0, #20]
   30080:	e3a01013 	mov	r1, #19	; 0x13
   30084:	e5801010 	str	r1, [r0, #16]
   30088:	e3a01000 	mov	r1, #0	; 0x0
   3008c:	e580100c 	str	r1, [r0, #12]
   30090:	e3a01060 	mov	r1, #96	; 0x60
   30094:	e5801008 	str	r1, [r0, #8]
   30098:	e3a02010 	mov	r2, #16	; 0x10
   3009c:	e5901004 	ldr	r1, [r0, #4]
   300a0:	e2522001 	subs	r2, r2, #1	; 0x1
   300a4:	1afffffc 	bne	3009c <ser_init+0x44>
   300a8:	e1a0f00e 	mov	pc, lr

000300ac <ser_prints>:
   300ac:	e3a04442 	mov	r4, #1107296256	; 0x42000000
   300b0:	e3844e16 	orr	r4, r4, #352	; 0x160
   300b4:	e4d05001 	ldrb	r5, [r0], #1
   300b8:	e3350000 	teq	r5, #0	; 0x0
   300bc:	e5845000 	str	r5, [r4]
   300c0:	e5946018 	ldr	r6, [r4, #24]
   300c4:	e3160008 	tst	r6, #8	; 0x8
   300c8:	1afffffc 	bne	300c0 <ser_prints+0x14>
   300cc:	e335000a 	teq	r5, #10	; 0xa
   300d0:	0afffff9 	beq	300bc <ser_prints+0x10>
   300d4:	eafffff6 	b	300b4 <ser_prints+0x8>

000300d8 <ser_printc>:
   300d8:	e3a04442 	mov	r4, #1107296256	; 0x42000000
   300dc:	e3844e16 	orr	r4, r4, #352	; 0x160
   300e0:	e5840000 	str	r0, [r4]
   300e4:	e5946018 	ldr	r6, [r4, #24]
   300e8:	e3160008 	tst	r6, #8	; 0x8
   300ec:	1afffffc 	bne	300e4 <ser_printc+0xc>
   300f0:	e330000a 	teq	r0, #10	; 0xa
   300f4:	0afffff9 	beq	300e0 <ser_printc+0x8>
   300f8:	e1a0f00e 	mov	pc, lr

000300fc <ser_printhex>:
   300fc:	e3a04442 	mov	r4, #1107296256	; 0x42000000
   30100:	e3844e16 	orr	r4, r4, #352	; 0x160
   30104:	e3a06008 	mov	r6, #8	; 0x8
   30108:	e200520f 	and	r5, r0, #-268435456	; 0xf0000000
   3010c:	e1a05e25 	mov	r5, r5, lsr #28
   30110:	e355000a 	cmp	r5, #10	; 0xa
   30114:	e2855030 	add	r5, r5, #48	; 0x30
   30118:	e5845000 	str	r5, [r4]
   3011c:	e5945018 	ldr	r5, [r4, #24]
   30120:	e3150008 	tst	r5, #8	; 0x8
   30124:	1afffffc 	bne	3011c <ser_printhex+0x20>
   30128:	e1a00200 	mov	r0, r0, lsl #4
   3012c:	e2566001 	subs	r6, r6, #1	; 0x1
   30130:	1afffff4 	bne	30108 <ser_printhex+0xc>
   30134:	e1a0f00e 	mov	pc, lr

00030138 <ser_msg>:
   30138:	ebffffdb 	bl	300ac <ser_prints>

0003013c <ser_getc>:
   3013c:	e3a03442 	mov	r3, #1107296256	; 0x42000000
   30140:	e3833e16 	orr	r3, r3, #352	; 0x160
   30144:	e5932018 	ldr	r2, [r3, #24]
   30148:	e3120010 	tst	r2, #16	; 0x10
   3014c:	1afffffc 	bne	30144 <ser_getc+0x8>
   30150:	e5930000 	ldr	r0, [r3]
   30154:	e1a0f00e 	mov	pc, lr

00030158 <ram_test>:
   30158:	e52de004 	str	lr, [sp, -#4]!
   3015c:	e24dd008 	sub	sp, sp, #8	; 0x8
   30160:	e3a03001 	mov	r3, #1	; 0x1
   30164:	e58d3000 	str	r3, [sp]
   30168:	e59f00ac 	ldr	r0, [pc, #ac]	; 3021c <ram_test+0xc4>
   3016c:	eb000d0c 	bl	335a4 <printf>
   30170:	e3a03601 	mov	r3, #1048576	; 0x100000
   30174:	e58d3004 	str	r3, [sp, #4]
   30178:	e59f30a0 	ldr	r3, [pc, #a0]	; 30220 <ram_test+0xc8>
   3017c:	e59d2004 	ldr	r2, [sp, #4]
   30180:	e5933000 	ldr	r3, [r3]
   30184:	e1520003 	cmp	r2, r3
   30188:	3a000000 	bcc	30190 <ram_test+0x38>
   3018c:	ea00001f 	b	30210 <ram_test+0xb8>
   30190:	e59d0004 	ldr	r0, [sp, #4]
   30194:	e59f1088 	ldr	r1, [pc, #88]	; 30224 <ram_test+0xcc>
   30198:	eb0000d3 	bl	304ec <ramtest>
   3019c:	e1a03000 	mov	r3, r0
   301a0:	e59f207c 	ldr	r2, [pc, #7c]	; 30224 <ram_test+0xcc>
   301a4:	e1530002 	cmp	r3, r2
   301a8:	0a000005 	beq	301c4 <ram_test+0x6c>
   301ac:	e59f0074 	ldr	r0, [pc, #74]	; 30228 <ram_test+0xd0>
   301b0:	e59d1004 	ldr	r1, [sp, #4]
   301b4:	eb000cfa 	bl	335a4 <printf>
   301b8:	e3a03000 	mov	r3, #0	; 0x0
   301bc:	e58d3000 	str	r3, [sp]
   301c0:	ea000012 	b	30210 <ram_test+0xb8>
   301c4:	e59d2004 	ldr	r2, [sp, #4]
   301c8:	e3c2327f 	bic	r3, r2, #-268435449	; 0xf0000007
   301cc:	e3c336ff 	bic	r3, r3, #267386880	; 0xff00000
   301d0:	e3c33702 	bic	r3, r3, #524288	; 0x80000
   301d4:	e3a02a7f 	mov	r2, #520192	; 0x7f000
   301d8:	e2822eff 	add	r2, r2, #4080	; 0xff0
   301dc:	e2822008 	add	r2, r2, #8	; 0x8
   301e0:	e1530002 	cmp	r3, r2
   301e4:	1a000005 	bne	30200 <ram_test+0xa8>
   301e8:	e59d2004 	ldr	r2, [sp, #4]
   301ec:	e2823004 	add	r3, r2, #4	; 0x4
   301f0:	e1a02523 	mov	r2, r3, lsr #10
   301f4:	e59f0030 	ldr	r0, [pc, #30]	; 3022c <ram_test+0xd4>
   301f8:	e1a01002 	mov	r1, r2
   301fc:	eb000ce8 	bl	335a4 <printf>
   30200:	e59d3004 	ldr	r3, [sp, #4]
   30204:	e2832008 	add	r2, r3, #8	; 0x8
   30208:	e58d2004 	str	r2, [sp, #4]
   3020c:	eaffffd9 	b	30178 <ram_test+0x20>
   30210:	e59d3000 	ldr	r3, [sp]
   30214:	e1a00003 	mov	r0, r3
   30218:	ea000004 	b	30230 <ram_test+0xd8>
   3021c:	000347a8 	andeq	r4, r3, r8, lsr #15
   30220:	0003544c 	andeq	r5, r3, r12, asr #8
   30224:	55aacc33 	strpl	r12, [r10, #3123]!
   30228:	000347bc 	streqh	r4, [r3], -r12
   3022c:	000347e8 	andeq	r4, r3, r8, ror #15
   30230:	e28dd008 	add	sp, sp, #8	; 0x8
   30234:	e8bd8000 	ldmia	sp!, {pc}

00030238 <locate_boot_device>:
   30238:	e92d4010 	stmdb	sp!, {r4, lr}
   3023c:	e24dd00c 	sub	sp, sp, #12	; 0xc
   30240:	e3a03000 	mov	r3, #0	; 0x0
   30244:	e58d3000 	str	r3, [sp]
   30248:	e59f3150 	ldr	r3, [pc, #150]	; 303a0 <locate_boot_device+0x168>
   3024c:	e3a02000 	mov	r2, #0	; 0x0
   30250:	e5832000 	str	r2, [r3]
   30254:	e59f3144 	ldr	r3, [pc, #144]	; 303a0 <locate_boot_device+0x168>
   30258:	e58d3008 	str	r3, [sp, #8]
   3025c:	e59f0140 	ldr	r0, [pc, #140]	; 303a4 <locate_boot_device+0x16c>
   30260:	eb000ccf 	bl	335a4 <printf>
   30264:	e3a03000 	mov	r3, #0	; 0x0
   30268:	e58d3004 	str	r3, [sp, #4]
   3026c:	e59f3134 	ldr	r3, [pc, #134]	; 303a8 <locate_boot_device+0x170>
   30270:	e59d2004 	ldr	r2, [sp, #4]
   30274:	e1a01002 	mov	r1, r2
   30278:	e1a02101 	mov	r2, r1, lsl #2
   3027c:	e0833002 	add	r3, r3, r2
   30280:	e5932000 	ldr	r2, [r3]
   30284:	e3520000 	cmp	r2, #0	; 0x0
   30288:	1a000000 	bne	30290 <locate_boot_device+0x58>
   3028c:	ea000031 	b	30358 <locate_boot_device+0x120>
   30290:	e59f3110 	ldr	r3, [pc, #110]	; 303a8 <locate_boot_device+0x170>
   30294:	e59d2004 	ldr	r2, [sp, #4]
   30298:	e1a01002 	mov	r1, r2
   3029c:	e1a02101 	mov	r2, r1, lsl #2
   302a0:	e0833002 	add	r3, r3, r2
   302a4:	e5932000 	ldr	r2, [r3]
   302a8:	e5924004 	ldr	r4, [r2, #4]
   302ac:	e1a0e00f 	mov	lr, pc
   302b0:	e1a0f004 	mov	pc, r4
   302b4:	e1a03000 	mov	r3, r0
   302b8:	e3530000 	cmp	r3, #0	; 0x0
   302bc:	1a000021 	bne	30348 <locate_boot_device+0x110>
   302c0:	e59d3000 	ldr	r3, [sp]
   302c4:	e3530000 	cmp	r3, #0	; 0x0
   302c8:	0a000001 	beq	302d4 <locate_boot_device+0x9c>
   302cc:	e59f30d8 	ldr	r3, [pc, #d8]	; 303ac <locate_boot_device+0x174>
   302d0:	ea000000 	b	302d8 <locate_boot_device+0xa0>
   302d4:	e59f30d4 	ldr	r3, [pc, #d4]	; 303b0 <locate_boot_device+0x178>
   302d8:	e59f20c8 	ldr	r2, [pc, #c8]	; 303a8 <locate_boot_device+0x170>
   302dc:	e59d1004 	ldr	r1, [sp, #4]
   302e0:	e1a0c001 	mov	r12, r1
   302e4:	e1a0110c 	mov	r1, r12, lsl #2
   302e8:	e0822001 	add	r2, r2, r1
   302ec:	e5921000 	ldr	r1, [r2]
   302f0:	e1a00003 	mov	r0, r3
   302f4:	e5911000 	ldr	r1, [r1]
   302f8:	eb000ca9 	bl	335a4 <printf>
   302fc:	e59d3008 	ldr	r3, [sp, #8]
   30300:	e59f20a0 	ldr	r2, [pc, #a0]	; 303a8 <locate_boot_device+0x170>
   30304:	e59d1004 	ldr	r1, [sp, #4]
   30308:	e1a0c001 	mov	r12, r1
   3030c:	e1a0110c 	mov	r1, r12, lsl #2
   30310:	e0822001 	add	r2, r2, r1
   30314:	e5921000 	ldr	r1, [r2]
   30318:	e5831000 	str	r1, [r3]
   3031c:	e59f3084 	ldr	r3, [pc, #84]	; 303a8 <locate_boot_device+0x170>
   30320:	e59d2004 	ldr	r2, [sp, #4]
   30324:	e1a01002 	mov	r1, r2
   30328:	e1a02101 	mov	r2, r1, lsl #2
   3032c:	e0833002 	add	r3, r3, r2
   30330:	e5932000 	ldr	r2, [r3]
   30334:	e2823014 	add	r3, r2, #20	; 0x14
   30338:	e58d3008 	str	r3, [sp, #8]
   3033c:	e59d3000 	ldr	r3, [sp]
   30340:	e2832001 	add	r2, r3, #1	; 0x1
   30344:	e58d2000 	str	r2, [sp]
   30348:	e59d3004 	ldr	r3, [sp, #4]
   3034c:	e2832001 	add	r2, r3, #1	; 0x1
   30350:	e58d2004 	str	r2, [sp, #4]
   30354:	eaffffc4 	b	3026c <locate_boot_device+0x34>
   30358:	e59d3000 	ldr	r3, [sp]
   3035c:	e3530000 	cmp	r3, #0	; 0x0
   30360:	1a000000 	bne	30368 <locate_boot_device+0x130>
   30364:	ea000009 	b	30390 <locate_boot_device+0x158>
   30368:	e59f0044 	ldr	r0, [pc, #44]	; 303b4 <locate_boot_device+0x17c>
   3036c:	eb000c8c 	bl	335a4 <printf>
   30370:	e59d3000 	ldr	r3, [sp]
   30374:	e3530001 	cmp	r3, #1	; 0x1
   30378:	0a000001 	beq	30384 <locate_boot_device+0x14c>
   3037c:	e3a03002 	mov	r3, #2	; 0x2
   30380:	ea000000 	b	30388 <locate_boot_device+0x150>
   30384:	e3a03001 	mov	r3, #1	; 0x1
   30388:	e1a00003 	mov	r0, r3
   3038c:	ea00000a 	b	303bc <locate_boot_device+0x184>
   30390:	e59f0020 	ldr	r0, [pc, #20]	; 303b8 <locate_boot_device+0x180>
   30394:	eb000c82 	bl	335a4 <printf>
   30398:	e3a00000 	mov	r0, #0	; 0x0
   3039c:	ea000006 	b	303bc <locate_boot_device+0x184>
   303a0:	00035580 	andeq	r5, r3, r0, lsl #11
   303a4:	000347f0 	streqsh	r4, [r3], -r0
   303a8:	00035444 	andeq	r5, r3, r4, asr #8
   303ac:	0003480c 	andeq	r4, r3, r12, lsl #16
   303b0:	00034814 	andeq	r4, r3, r4, lsl r8
   303b4:	00034818 	andeq	r4, r3, r8, lsl r8
   303b8:	0003481c 	andeq	r4, r3, r12, lsl r8
   303bc:	e28dd00c 	add	sp, sp, #12	; 0xc
   303c0:	e8bd8010 	ldmia	sp!, {r4, pc}

000303c4 <start_main>:
   303c4:	e92d4010 	stmdb	sp!, {r4, lr}
   303c8:	e24dd004 	sub	sp, sp, #4	; 0x4
   303cc:	eb000b9a 	bl	3323c <vga_init>
   303d0:	e59f00f8 	ldr	r0, [pc, #f8]	; 304d0 <start_main+0x10c>
   303d4:	eb000c72 	bl	335a4 <printf>
   303d8:	ebffff96 	bl	30238 <locate_boot_device>
   303dc:	e1a03000 	mov	r3, r0
   303e0:	e3530000 	cmp	r3, #0	; 0x0
   303e4:	0a000002 	beq	303f4 <start_main+0x30>
   303e8:	e3530002 	cmp	r3, #2	; 0x2
   303ec:	8a000002 	bhi	303fc <start_main+0x38>
   303f0:	ea000000 	b	303f8 <start_main+0x34>
   303f4:	ea000030 	b	304bc <start_main+0xf8>
   303f8:	eaffffff 	b	303fc <start_main+0x38>
   303fc:	e1a00000 	nop			(mov r0,r0)
   30400:	e59f30cc 	ldr	r3, [pc, #cc]	; 304d4 <start_main+0x110>
   30404:	e5932000 	ldr	r2, [r3]
   30408:	e58d2000 	str	r2, [sp]
   3040c:	e59d3000 	ldr	r3, [sp]
   30410:	e3530000 	cmp	r3, #0	; 0x0
   30414:	1a000000 	bne	3041c <start_main+0x58>
   30418:	ea00001b 	b	3048c <start_main+0xc8>
   3041c:	e59d3000 	ldr	r3, [sp]
   30420:	e59f00b0 	ldr	r0, [pc, #b0]	; 304d8 <start_main+0x114>
   30424:	e5931000 	ldr	r1, [r3]
   30428:	eb000c5d 	bl	335a4 <printf>
   3042c:	e59d3000 	ldr	r3, [sp]
   30430:	e5934008 	ldr	r4, [r3, #8]
   30434:	e1a0e00f 	mov	lr, pc
   30438:	e1a0f004 	mov	pc, r4
   3043c:	e1a03000 	mov	r3, r0
   30440:	e3530000 	cmp	r3, #0	; 0x0
   30444:	0a000000 	beq	3044c <start_main+0x88>
   30448:	ea00000b 	b	3047c <start_main+0xb8>
   3044c:	e59d3000 	ldr	r3, [sp]
   30450:	e593400c 	ldr	r4, [r3, #12]
   30454:	e1a0e00f 	mov	lr, pc
   30458:	e1a0f004 	mov	pc, r4
   3045c:	e1a03000 	mov	r3, r0
   30460:	e3530000 	cmp	r3, #0	; 0x0
   30464:	1a000000 	bne	3046c <start_main+0xa8>
   30468:	ea000007 	b	3048c <start_main+0xc8>
   3046c:	e59d3000 	ldr	r3, [sp]
   30470:	e5934010 	ldr	r4, [r3, #16]
   30474:	e1a0e00f 	mov	lr, pc
   30478:	e1a0f004 	mov	pc, r4
   3047c:	e59d3000 	ldr	r3, [sp]
   30480:	e5932014 	ldr	r2, [r3, #20]
   30484:	e58d2000 	str	r2, [sp]
   30488:	eaffffdf 	b	3040c <start_main+0x48>
   3048c:	e59d3000 	ldr	r3, [sp]
   30490:	e3530000 	cmp	r3, #0	; 0x0
   30494:	1a000000 	bne	3049c <start_main+0xd8>
   30498:	ea000007 	b	304bc <start_main+0xf8>
   3049c:	e59d3000 	ldr	r3, [sp]
   304a0:	e5934010 	ldr	r4, [r3, #16]
   304a4:	e1a0e00f 	mov	lr, pc
   304a8:	e1a0f004 	mov	pc, r4
   304ac:	e59f0028 	ldr	r0, [pc, #28]	; 304dc <start_main+0x118>
   304b0:	eb000c3b 	bl	335a4 <printf>
   304b4:	eb00007d 	bl	306b0 <boot_kernel>
   304b8:	ea000009 	b	304e4 <start_main+0x120>
   304bc:	e59f001c 	ldr	r0, [pc, #1c]	; 304e0 <start_main+0x11c>
   304c0:	eb000c37 	bl	335a4 <printf>
   304c4:	ea000000 	b	304cc <start_main+0x108>
   304c8:	ea000005 	b	304e4 <start_main+0x120>
   304cc:	eafffffc 	b	304c4 <start_main+0x100>
   304d0:	00034824 	andeq	r4, r3, r4, lsr #16
   304d4:	00035580 	andeq	r5, r3, r0, lsl #11
   304d8:	00034870 	andeq	r4, r3, r0, ror r8
   304dc:	00034880 	andeq	r4, r3, r0, lsl #17
   304e0:	00034898 	muleq	r3, r8, r8
   304e4:	e28dd004 	add	sp, sp, #4	; 0x4
   304e8:	e8bd8010 	ldmia	sp!, {r4, pc}

000304ec <ramtest>:
   304ec:	e92d4010 	stmdb	sp!, {r4, lr}
   304f0:	e8904010 	ldmia	r0, {r4, lr}
   304f4:	e1e02001 	mvn	r2, r1
   304f8:	e8800006 	stmia	r0, {r1, r2}
   304fc:	e8901008 	ldmia	r0, {r3, r12}
   30500:	e1310003 	teq	r1, r3
   30504:	0132000c 	teqeq	r2, r12
   30508:	e1e01001 	mvn	r1, r1
   3050c:	e1e02002 	mvn	r2, r2
   30510:	e8800006 	stmia	r0, {r1, r2}
   30514:	e8901008 	ldmia	r0, {r3, r12}
   30518:	e8804010 	stmia	r0, {r4, lr}
   3051c:	01310003 	teqeq	r1, r3
   30520:	01a0000c 	moveq	r0, r12
   30524:	11a00001 	movne	r0, r1
   30528:	e8bd8010 	ldmia	sp!, {r4, pc}

0003052c <time_interrupt>:
   3052c:	e52de004 	str	lr, [sp, -#4]!
   30530:	e3a00000 	mov	r0, #0	; 0x0
   30534:	e3a01fc3 	mov	r1, #780	; 0x30c
   30538:	eb000043 	bl	3064c <csr_write_long>
   3053c:	e59f306c 	ldr	r3, [pc, #6c]	; 305b0 <time_interrupt+0x84>
   30540:	e59f2068 	ldr	r2, [pc, #68]	; 305b0 <time_interrupt+0x84>
   30544:	e5921000 	ldr	r1, [r2]
   30548:	e2812001 	add	r2, r1, #1	; 0x1
   3054c:	e5832000 	str	r2, [r3]
   30550:	e59f205c 	ldr	r2, [pc, #5c]	; 305b4 <time_interrupt+0x88>
   30554:	e59f3058 	ldr	r3, [pc, #58]	; 305b4 <time_interrupt+0x88>
   30558:	e59f2054 	ldr	r2, [pc, #54]	; 305b4 <time_interrupt+0x88>
   3055c:	e5921000 	ldr	r1, [r2]
   30560:	e2812001 	add	r2, r1, #1	; 0x1
   30564:	e1a01002 	mov	r1, r2
   30568:	e5831000 	str	r1, [r3]
   3056c:	e3510063 	cmp	r1, #99	; 0x63
   30570:	da000011 	ble	305bc <time_interrupt+0x90>
   30574:	e59f3038 	ldr	r3, [pc, #38]	; 305b4 <time_interrupt+0x88>
   30578:	e3a02000 	mov	r2, #0	; 0x0
   3057c:	e5832000 	str	r2, [r3]
   30580:	e59f3030 	ldr	r3, [pc, #30]	; 305b8 <time_interrupt+0x8c>
   30584:	e59f202c 	ldr	r2, [pc, #2c]	; 305b8 <time_interrupt+0x8c>
   30588:	e5921000 	ldr	r1, [r2]
   3058c:	e2212002 	eor	r2, r1, #2	; 0x2
   30590:	e5832000 	str	r2, [r3]
   30594:	e3a03101 	mov	r3, #1073741824	; 0x40000000
   30598:	e2833801 	add	r3, r3, #65536	; 0x10000
   3059c:	e18338a3 	orr	r3, r3, r3, lsr #17
   305a0:	e59f2010 	ldr	r2, [pc, #10]	; 305b8 <time_interrupt+0x8c>
   305a4:	e5921000 	ldr	r1, [r2]
   305a8:	e5831000 	str	r1, [r3]
   305ac:	ea000002 	b	305bc <time_interrupt+0x90>
   305b0:	00035a10 	andeq	r5, r3, r0, lsl r10
   305b4:	00035584 	andeq	r5, r3, r4, lsl #11
   305b8:	00035450 	andeq	r5, r3, r0, asr r4
   305bc:	e8bd8000 	ldmia	sp!, {pc}

000305c0 <wait_cs>:
   305c0:	e24dd008 	sub	sp, sp, #8	; 0x8
   305c4:	e58d0004 	str	r0, [sp, #4]
   305c8:	e59f3028 	ldr	r3, [pc, #28]	; 305f8 <wait_cs+0x38>
   305cc:	e5932000 	ldr	r2, [r3]
   305d0:	e59d3004 	ldr	r3, [sp, #4]
   305d4:	e0822003 	add	r2, r2, r3
   305d8:	e58d2000 	str	r2, [sp]
   305dc:	e59f3014 	ldr	r3, [pc, #14]	; 305f8 <wait_cs+0x38>
   305e0:	e5932000 	ldr	r2, [r3]
   305e4:	e59d3000 	ldr	r3, [sp]
   305e8:	e1520003 	cmp	r2, r3
   305ec:	3a000000 	bcc	305f4 <wait_cs+0x34>
   305f0:	ea000001 	b	305fc <wait_cs+0x3c>
   305f4:	eafffff8 	b	305dc <wait_cs+0x1c>
   305f8:	00035a10 	andeq	r5, r3, r0, lsl r10
   305fc:	e28dd008 	add	sp, sp, #8	; 0x8
   30600:	e1a0f00e 	mov	pc, lr

00030604 <time_init>:
   30604:	e52de004 	str	lr, [sp, -#4]!
   30608:	e3a00000 	mov	r0, #0	; 0x0
   3060c:	e3a01fc3 	mov	r1, #780	; 0x30c
   30610:	eb00000d 	bl	3064c <csr_write_long>
   30614:	e3a00c7a 	mov	r0, #31232	; 0x7a00
   30618:	e2800012 	add	r0, r0, #18	; 0x12
   3061c:	e3a01c03 	mov	r1, #768	; 0x300
   30620:	eb000009 	bl	3064c <csr_write_long>
   30624:	e3a000c4 	mov	r0, #196	; 0xc4
   30628:	e3a01fc2 	mov	r1, #776	; 0x308
   3062c:	eb000006 	bl	3064c <csr_write_long>
   30630:	e3e00000 	mvn	r0, #0	; 0x0
   30634:	e3a01f63 	mov	r1, #396	; 0x18c
   30638:	eb000003 	bl	3064c <csr_write_long>
   3063c:	e3a00010 	mov	r0, #16	; 0x10
   30640:	e3a01f62 	mov	r1, #392	; 0x188
   30644:	eb000000 	bl	3064c <csr_write_long>
   30648:	e8bd8000 	ldmia	sp!, {pc}

0003064c <csr_write_long>:
   3064c:	e1a03000 	mov	r3, r0
   30650:	e1a02001 	mov	r2, r1
   30654:	e3a01442 	mov	r1, #1107296256	; 0x42000000
   30658:	e7813002 	str	r3, [r1, r2]
   3065c:	e1a0f00e 	mov	pc, lr

00030660 <vec_init>:
   30660:	e3a01000 	mov	r1, #0	; 0x0
   30664:	e59f2038 	ldr	r2, [pc, #38]	; 306a4 <vec_br>
   30668:	e4812004 	str	r2, [r1], #4
   3066c:	e3510020 	cmp	r1, #32	; 0x20
   30670:	bafffffc 	blt	30668 <vec_init+0x8>
   30674:	e10f0000 	mrs	r0, CPSR
   30678:	e3c0101f 	bic	r1, r0, #31	; 0x1f
   3067c:	e38110d2 	orr	r1, r1, #210	; 0xd2
   30680:	e129f001 	msr	CPSR_all, r1
   30684:	e1a00000 	nop			(mov r0,r0)
   30688:	e3a0da01 	mov	sp, #4096	; 0x1000
   3068c:	e129f000 	msr	CPSR_all, r0
   30690:	e1a00000 	nop			(mov r0,r0)
   30694:	e28f000c 	add	r0, pc, #12	; 0xc
   30698:	e3a01000 	mov	r1, #0	; 0x0
   3069c:	e5810038 	str	r0, [r1, #56]
   306a0:	e1a0f00e 	mov	pc, lr

000306a4 <vec_br>:
   306a4:	e59ff018 	ldr	pc, [pc, #18]	; 306c4 <boot_kernel+0x14>

000306a8 <vec_irq>:
   306a8:	ebffff9f 	bl	3052c <time_interrupt>
   306ac:	e25ef004 	subs	pc, lr, #4	; 0x4

000306b0 <boot_kernel>:
   306b0:	e92d4010 	stmdb	sp!, {r4, lr}
   306b4:	e59f30e0 	ldr	r3, [pc, #e0]	; 3079c <boot_kernel+0xec>
   306b8:	e5930000 	ldr	r0, [r3]
   306bc:	e3a01000 	mov	r1, #0	; 0x0
   306c0:	e3a02c09 	mov	r2, #2304	; 0x900
   306c4:	eb000b9e 	bl	33544 <memset>
   306c8:	e59f20cc 	ldr	r2, [pc, #cc]	; 3079c <boot_kernel+0xec>
   306cc:	e5923000 	ldr	r3, [r2]
   306d0:	e3a02a01 	mov	r2, #4096	; 0x1000
   306d4:	e5832000 	str	r2, [r3]
   306d8:	e59f20bc 	ldr	r2, [pc, #bc]	; 3079c <boot_kernel+0xec>
   306dc:	e5923000 	ldr	r3, [r2]
   306e0:	e59f10b8 	ldr	r1, [pc, #b8]	; 307a0 <boot_kernel+0xf0>
   306e4:	e5912000 	ldr	r2, [r1]
   306e8:	e1a01fc2 	mov	r1, r2, asr #31
   306ec:	e1a0ca21 	mov	r12, r1, lsr #20
   306f0:	e082100c 	add	r1, r2, r12
   306f4:	e1a02641 	mov	r2, r1, asr #12
   306f8:	e5832004 	str	r2, [r3, #4]
   306fc:	e59f2098 	ldr	r2, [pc, #98]	; 3079c <boot_kernel+0xec>
   30700:	e5923000 	ldr	r3, [r2]
   30704:	e59f2098 	ldr	r2, [pc, #98]	; 307a4 <boot_kernel+0xf4>
   30708:	e5921000 	ldr	r1, [r2]
   3070c:	e5831010 	str	r1, [r3, #16]
   30710:	e59f2084 	ldr	r2, [pc, #84]	; 3079c <boot_kernel+0xec>
   30714:	e5923000 	ldr	r3, [r2]
   30718:	e59f2088 	ldr	r2, [pc, #88]	; 307a8 <boot_kernel+0xf8>
   3071c:	e5921000 	ldr	r1, [r2]
   30720:	e583100c 	str	r1, [r3, #12]
   30724:	e59f3070 	ldr	r3, [pc, #70]	; 3079c <boot_kernel+0xec>
   30728:	e5932000 	ldr	r2, [r3]
   3072c:	e282301c 	add	r3, r2, #28	; 0x1c
   30730:	e59f2064 	ldr	r2, [pc, #64]	; 3079c <boot_kernel+0xec>
   30734:	e5921000 	ldr	r1, [r2]
   30738:	e2812020 	add	r2, r1, #32	; 0x20
   3073c:	e59f1058 	ldr	r1, [pc, #58]	; 3079c <boot_kernel+0xec>
   30740:	e591e000 	ldr	lr, [r1]
   30744:	e28ec014 	add	r12, lr, #20	; 0x14
   30748:	e59f104c 	ldr	r1, [pc, #4c]	; 3079c <boot_kernel+0xec>
   3074c:	e5914000 	ldr	r4, [r1]
   30750:	e284e018 	add	lr, r4, #24	; 0x18
   30754:	e1a00003 	mov	r0, r3
   30758:	e1a01002 	mov	r1, r2
   3075c:	e1a0200c 	mov	r2, r12
   30760:	e1a0300e 	mov	r3, lr
   30764:	eb000b0a 	bl	33394 <con_get_params>
   30768:	e59f302c 	ldr	r3, [pc, #2c]	; 3079c <boot_kernel+0xec>
   3076c:	e5932000 	ldr	r2, [r3]
   30770:	e2823c05 	add	r3, r2, #1280	; 0x500
   30774:	e1a00003 	mov	r0, r3
   30778:	e59f102c 	ldr	r1, [pc, #2c]	; 307ac <boot_kernel+0xfc>
   3077c:	eb000b7d 	bl	33578 <strcpy>
   30780:	e59f2028 	ldr	r2, [pc, #28]	; 307b0 <boot_kernel+0x100>
   30784:	e5923000 	ldr	r3, [r2]
   30788:	e3a00000 	mov	r0, #0	; 0x0
   3078c:	e3a01004 	mov	r1, #4	; 0x4
   30790:	e1a0e00f 	mov	lr, pc
   30794:	e1a0f003 	mov	pc, r3
   30798:	ea000005 	b	307b4 <boot_kernel+0x104>
   3079c:	00035454 	andeq	r5, r3, r4, asr r4
   307a0:	0003544c 	andeq	r5, r3, r12, asr #8
   307a4:	00035a0c 	andeq	r5, r3, r12, lsl #20
   307a8:	00035a14 	andeq	r5, r3, r4, lsl r10
   307ac:	000348ac 	andeq	r4, r3, r12, lsr #17
   307b0:	00035458 	andeq	r5, r3, r8, asr r4
   307b4:	e8bd8010 	ldmia	sp!, {r4, pc}

000307b8 <pci_alloc_io>:
   307b8:	e52de004 	str	lr, [sp, -#4]!
   307bc:	e24dd004 	sub	sp, sp, #4	; 0x4
   307c0:	e58d0000 	str	r0, [sp]
   307c4:	e59f0010 	ldr	r0, [pc, #10]	; 307dc <pci_alloc_io+0x24>
   307c8:	e59d1000 	ldr	r1, [sp]
   307cc:	eb0002ff 	bl	313d0 <pci_alloc>
   307d0:	e1a03000 	mov	r3, r0
   307d4:	e1a00003 	mov	r0, r3
   307d8:	ea000000 	b	307e0 <pci_alloc_io+0x28>
   307dc:	00035588 	andeq	r5, r3, r8, lsl #11
   307e0:	e28dd004 	add	sp, sp, #4	; 0x4
   307e4:	e8bd8000 	ldmia	sp!, {pc}

000307e8 <pci_alloc_mem>:
   307e8:	e52de004 	str	lr, [sp, -#4]!
   307ec:	e24dd004 	sub	sp, sp, #4	; 0x4
   307f0:	e58d0000 	str	r0, [sp]
   307f4:	e59f0010 	ldr	r0, [pc, #10]	; 3080c <pci_alloc_mem+0x24>
   307f8:	e59d1000 	ldr	r1, [sp]
   307fc:	eb0002f3 	bl	313d0 <pci_alloc>
   30800:	e1a03000 	mov	r3, r0
   30804:	e1a00003 	mov	r0, r3
   30808:	ea000000 	b	30810 <pci_alloc_mem+0x28>
   3080c:	0003558c 	andeq	r5, r3, r12, lsl #11
   30810:	e28dd004 	add	sp, sp, #4	; 0x4
   30814:	e8bd8000 	ldmia	sp!, {pc}

00030818 <pci_init_hw>:
   30818:	e52de004 	str	lr, [sp, -#4]!
   3081c:	e24dd004 	sub	sp, sp, #4	; 0x4
   30820:	e3a00f4f 	mov	r0, #316	; 0x13c
   30824:	eb0002a9 	bl	312d0 <csr_read_long>
   30828:	e58d0000 	str	r0, [sp]
   3082c:	e59d2000 	ldr	r2, [sp]
   30830:	e2023102 	and	r3, r2, #-2147483648	; 0x80000000
   30834:	e3530000 	cmp	r3, #0	; 0x0
   30838:	0a00002f 	beq	308fc <pci_init_hw+0xe4>
   3083c:	e3a00000 	mov	r0, #0	; 0x0
   30840:	e3a01d05 	mov	r1, #320	; 0x140
   30844:	eb000297 	bl	312a8 <csr_write_long>
   30848:	e3a0000c 	mov	r0, #12	; 0xc
   3084c:	e3a01034 	mov	r1, #52	; 0x34
   30850:	eb000294 	bl	312a8 <csr_write_long>
   30854:	e3a00000 	mov	r0, #0	; 0x0
   30858:	e3a01e15 	mov	r1, #336	; 0x150
   3085c:	eb000291 	bl	312a8 <csr_write_long>
   30860:	e3a00000 	mov	r0, #0	; 0x0
   30864:	e3a01f55 	mov	r1, #340	; 0x154
   30868:	eb00028e 	bl	312a8 <csr_write_long>
   3086c:	e59d3000 	ldr	r3, [sp]
   30870:	e3832c02 	orr	r2, r3, #512	; 0x200
   30874:	e58d2000 	str	r2, [sp]
   30878:	e59d0000 	ldr	r0, [sp]
   3087c:	e3a01f4f 	mov	r1, #316	; 0x13c
   30880:	eb000288 	bl	312a8 <csr_write_long>
   30884:	e3a00000 	mov	r0, #0	; 0x0
   30888:	e3a01004 	mov	r1, #4	; 0x4
   3088c:	eb00028a 	bl	312bc <csr_write_word>
   30890:	e3a00000 	mov	r0, #0	; 0x0
   30894:	e3a010f8 	mov	r1, #248	; 0xf8
   30898:	eb000282 	bl	312a8 <csr_write_long>
   3089c:	e3a00101 	mov	r0, #1073741824	; 0x40000000
   308a0:	e3a01010 	mov	r1, #16	; 0x10
   308a4:	eb00027f 	bl	312a8 <csr_write_long>
   308a8:	e3a00a0f 	mov	r0, #61440	; 0xf000
   308ac:	e3a01014 	mov	r1, #20	; 0x14
   308b0:	eb00027c 	bl	312a8 <csr_write_long>
   308b4:	e3a0077f 	mov	r0, #33292288	; 0x1fc0000
   308b8:	e3a01c01 	mov	r1, #256	; 0x100
   308bc:	eb000279 	bl	312a8 <csr_write_long>
   308c0:	e3a00201 	mov	r0, #268435456	; 0x10000000
   308c4:	e3a01018 	mov	r1, #24	; 0x18
   308c8:	eb000276 	bl	312a8 <csr_write_long>
   308cc:	e3a00000 	mov	r0, #0	; 0x0
   308d0:	e3a01f41 	mov	r1, #260	; 0x104
   308d4:	eb000273 	bl	312a8 <csr_write_long>
   308d8:	e3a00f85 	mov	r0, #532	; 0x214
   308dc:	e2800003 	add	r0, r0, #3	; 0x3
   308e0:	e3a01004 	mov	r1, #4	; 0x4
   308e4:	eb000274 	bl	312bc <csr_write_word>
   308e8:	e59d2000 	ldr	r2, [sp]
   308ec:	e3823001 	orr	r3, r2, #1	; 0x1
   308f0:	e1a00003 	mov	r0, r3
   308f4:	e3a01f4f 	mov	r1, #316	; 0x13c
   308f8:	eb00026a 	bl	312a8 <csr_write_long>
   308fc:	e28dd004 	add	sp, sp, #4	; 0x4
   30900:	e8bd8000 	ldmia	sp!, {pc}

00030904 <pci_setup_cards_0>:
   30904:	e52de004 	str	lr, [sp, -#4]!
   30908:	e24dd018 	sub	sp, sp, #24	; 0x18
   3090c:	e58d0014 	str	r0, [sp, #20]
   30910:	e58d1010 	str	r1, [sp, #16]
   30914:	e3a03000 	mov	r3, #0	; 0x0
   30918:	e58d3004 	str	r3, [sp, #4]
   3091c:	e59d3004 	ldr	r3, [sp, #4]
   30920:	e3530017 	cmp	r3, #23	; 0x17
   30924:	9a000000 	bls	3092c <pci_setup_cards_0+0x28>
   30928:	ea00004b 	b	30a5c <pci_setup_cards_0+0x158>
   3092c:	e59d2014 	ldr	r2, [sp, #20]
   30930:	e2823010 	add	r3, r2, #16	; 0x10
   30934:	e59d2004 	ldr	r2, [sp, #4]
   30938:	e0833002 	add	r3, r3, r2
   3093c:	e3e00000 	mvn	r0, #0	; 0x0
   30940:	e1a01003 	mov	r1, r3
   30944:	eb00027c 	bl	3133c <write_long>
   30948:	e59d2014 	ldr	r2, [sp, #20]
   3094c:	e2823010 	add	r3, r2, #16	; 0x10
   30950:	e59d2004 	ldr	r2, [sp, #4]
   30954:	e0833002 	add	r3, r3, r2
   30958:	e1a00003 	mov	r0, r3
   3095c:	eb000271 	bl	31328 <read_long>
   30960:	e1a03000 	mov	r3, r0
   30964:	e58d300c 	str	r3, [sp, #12]
   30968:	e59d300c 	ldr	r3, [sp, #12]
   3096c:	e3530000 	cmp	r3, #0	; 0x0
   30970:	1a000000 	bne	30978 <pci_setup_cards_0+0x74>
   30974:	ea000034 	b	30a4c <pci_setup_cards_0+0x148>
   30978:	e59d200c 	ldr	r2, [sp, #12]
   3097c:	e2023001 	and	r3, r2, #1	; 0x1
   30980:	e3530000 	cmp	r3, #0	; 0x0
   30984:	0a000012 	beq	309d4 <pci_setup_cards_0+0xd0>
   30988:	e59d200c 	ldr	r2, [sp, #12]
   3098c:	e3c23003 	bic	r3, r2, #3	; 0x3
   30990:	e2632000 	rsb	r2, r3, #0	; 0x0
   30994:	e58d2008 	str	r2, [sp, #8]
   30998:	e59d2008 	ldr	r2, [sp, #8]
   3099c:	e1a03802 	mov	r3, r2, lsl #16
   309a0:	e1a03823 	mov	r3, r3, lsr #16
   309a4:	e58d3008 	str	r3, [sp, #8]
   309a8:	e59d0008 	ldr	r0, [sp, #8]
   309ac:	ebffff81 	bl	307b8 <pci_alloc_io>
   309b0:	e1a03000 	mov	r3, r0
   309b4:	e3832001 	orr	r2, r3, #1	; 0x1
   309b8:	e58d200c 	str	r2, [sp, #12]
   309bc:	e59d3010 	ldr	r3, [sp, #16]
   309c0:	e59d2010 	ldr	r2, [sp, #16]
   309c4:	e5921000 	ldr	r1, [r2]
   309c8:	e3812001 	orr	r2, r1, #1	; 0x1
   309cc:	e5832000 	str	r2, [r3]
   309d0:	ea00000c 	b	30a08 <pci_setup_cards_0+0x104>
   309d4:	e59d200c 	ldr	r2, [sp, #12]
   309d8:	e3c2300f 	bic	r3, r2, #15	; 0xf
   309dc:	e2632000 	rsb	r2, r3, #0	; 0x0
   309e0:	e58d2008 	str	r2, [sp, #8]
   309e4:	e59d0008 	ldr	r0, [sp, #8]
   309e8:	ebffff7e 	bl	307e8 <pci_alloc_mem>
   309ec:	e1a03000 	mov	r3, r0
   309f0:	e58d300c 	str	r3, [sp, #12]
   309f4:	e59d3010 	ldr	r3, [sp, #16]
   309f8:	e59d2010 	ldr	r2, [sp, #16]
   309fc:	e5921000 	ldr	r1, [r2]
   30a00:	e3812002 	orr	r2, r1, #2	; 0x2
   30a04:	e5832000 	str	r2, [r3]
   30a08:	e59d2014 	ldr	r2, [sp, #20]
   30a0c:	e2823010 	add	r3, r2, #16	; 0x10
   30a10:	e59d2004 	ldr	r2, [sp, #4]
   30a14:	e0833002 	add	r3, r3, r2
   30a18:	e59d000c 	ldr	r0, [sp, #12]
   30a1c:	e1a01003 	mov	r1, r3
   30a20:	eb000245 	bl	3133c <write_long>
   30a24:	e59d2014 	ldr	r2, [sp, #20]
   30a28:	e2823010 	add	r3, r2, #16	; 0x10
   30a2c:	e59d2004 	ldr	r2, [sp, #4]
   30a30:	e0833002 	add	r3, r3, r2
   30a34:	e1a00003 	mov	r0, r3
   30a38:	eb00023a 	bl	31328 <read_long>
   30a3c:	e1a03000 	mov	r3, r0
   30a40:	e59d200c 	ldr	r2, [sp, #12]
   30a44:	e1530002 	cmp	r3, r2
   30a48:	0affffff 	beq	30a4c <pci_setup_cards_0+0x148>
   30a4c:	e59d3004 	ldr	r3, [sp, #4]
   30a50:	e2832004 	add	r2, r3, #4	; 0x4
   30a54:	e58d2004 	str	r2, [sp, #4]
   30a58:	eaffffaf 	b	3091c <pci_setup_cards_0+0x18>
   30a5c:	e59d2014 	ldr	r2, [sp, #20]
   30a60:	e282300d 	add	r3, r2, #13	; 0xd
   30a64:	e3a00020 	mov	r0, #32	; 0x20
   30a68:	e1a01003 	mov	r1, r3
   30a6c:	eb00024f 	bl	313b0 <write_byte>
   30a70:	e59d2014 	ldr	r2, [sp, #20]
   30a74:	e2823030 	add	r3, r2, #48	; 0x30
   30a78:	e3e00001 	mvn	r0, #1	; 0x1
   30a7c:	e1a01003 	mov	r1, r3
   30a80:	eb00022d 	bl	3133c <write_long>
   30a84:	e59d2014 	ldr	r2, [sp, #20]
   30a88:	e2823030 	add	r3, r2, #48	; 0x30
   30a8c:	e1a00003 	mov	r0, r3
   30a90:	eb000224 	bl	31328 <read_long>
   30a94:	e1a03000 	mov	r3, r0
   30a98:	e58d300c 	str	r3, [sp, #12]
   30a9c:	e59d300c 	ldr	r3, [sp, #12]
   30aa0:	e3530000 	cmp	r3, #0	; 0x0
   30aa4:	0a000012 	beq	30af4 <pci_setup_cards_0+0x1f0>
   30aa8:	e59d200c 	ldr	r2, [sp, #12]
   30aac:	e3c23001 	bic	r3, r2, #1	; 0x1
   30ab0:	e2632000 	rsb	r2, r3, #0	; 0x0
   30ab4:	e58d2008 	str	r2, [sp, #8]
   30ab8:	e59d0008 	ldr	r0, [sp, #8]
   30abc:	ebffff49 	bl	307e8 <pci_alloc_mem>
   30ac0:	e1a03000 	mov	r3, r0
   30ac4:	e3832001 	orr	r2, r3, #1	; 0x1
   30ac8:	e58d200c 	str	r2, [sp, #12]
   30acc:	e59d2014 	ldr	r2, [sp, #20]
   30ad0:	e2823030 	add	r3, r2, #48	; 0x30
   30ad4:	e59d000c 	ldr	r0, [sp, #12]
   30ad8:	e1a01003 	mov	r1, r3
   30adc:	eb000216 	bl	3133c <write_long>
   30ae0:	e59d3010 	ldr	r3, [sp, #16]
   30ae4:	e59d2010 	ldr	r2, [sp, #16]
   30ae8:	e5921000 	ldr	r1, [r2]
   30aec:	e3812002 	orr	r2, r1, #2	; 0x2
   30af0:	e5832000 	str	r2, [r3]
   30af4:	e59d2014 	ldr	r2, [sp, #20]
   30af8:	e2823008 	add	r3, r2, #8	; 0x8
   30afc:	e1a00003 	mov	r0, r3
   30b00:	eb000208 	bl	31328 <read_long>
   30b04:	e1a03000 	mov	r3, r0
   30b08:	e1a02c23 	mov	r2, r3, lsr #24
   30b0c:	e58d2000 	str	r2, [sp]
   30b10:	e59d3000 	ldr	r3, [sp]
   30b14:	e3530001 	cmp	r3, #1	; 0x1
   30b18:	9a000002 	bls	30b28 <pci_setup_cards_0+0x224>
   30b1c:	e3530003 	cmp	r3, #3	; 0x3
   30b20:	0a000000 	beq	30b28 <pci_setup_cards_0+0x224>
   30b24:	ea000005 	b	30b40 <pci_setup_cards_0+0x23c>
   30b28:	e59d3010 	ldr	r3, [sp, #16]
   30b2c:	e59d2010 	ldr	r2, [sp, #16]
   30b30:	e5921000 	ldr	r1, [r2]
   30b34:	e3812001 	orr	r2, r1, #1	; 0x1
   30b38:	e5832000 	str	r2, [r3]
   30b3c:	eaffffff 	b	30b40 <pci_setup_cards_0+0x23c>
   30b40:	e28dd018 	add	sp, sp, #24	; 0x18
   30b44:	e8bd8000 	ldmia	sp!, {pc}

00030b48 <pci_scan>:
   30b48:	e52de004 	str	lr, [sp, -#4]!
   30b4c:	e24dd010 	sub	sp, sp, #16	; 0x10
   30b50:	e58d000c 	str	r0, [sp, #12]
   30b54:	e3a03000 	mov	r3, #0	; 0x0
   30b58:	e58d3004 	str	r3, [sp, #4]
   30b5c:	e3a03000 	mov	r3, #0	; 0x0
   30b60:	e58d3008 	str	r3, [sp, #8]
   30b64:	e59d3008 	ldr	r3, [sp, #8]
   30b68:	e353009f 	cmp	r3, #159	; 0x9f
   30b6c:	da000000 	ble	30b74 <pci_scan+0x2c>
   30b70:	ea00005c 	b	30ce8 <pci_scan+0x1a0>
   30b74:	e59d2008 	ldr	r2, [sp, #8]
   30b78:	e2023007 	and	r3, r2, #7	; 0x7
   30b7c:	e3530000 	cmp	r3, #0	; 0x0
   30b80:	0a000003 	beq	30b94 <pci_scan+0x4c>
   30b84:	e59d3004 	ldr	r3, [sp, #4]
   30b88:	e3530000 	cmp	r3, #0	; 0x0
   30b8c:	1a000000 	bne	30b94 <pci_scan+0x4c>
   30b90:	ea00004f 	b	30cd4 <pci_scan+0x18c>
   30b94:	e59d2008 	ldr	r2, [sp, #8]
   30b98:	e1a031c2 	mov	r3, r2, asr #3
   30b9c:	e59d1008 	ldr	r1, [sp, #8]
   30ba0:	e2012007 	and	r2, r1, #7	; 0x7
   30ba4:	e1a00003 	mov	r0, r3
   30ba8:	e1a01002 	mov	r1, r2
   30bac:	eb0001d2 	bl	312fc <pci_config_addr>
   30bb0:	e1a03000 	mov	r3, r0
   30bb4:	e58d3000 	str	r3, [sp]
   30bb8:	e59d0000 	ldr	r0, [sp]
   30bbc:	eb0001e2 	bl	3134c <read_word>
   30bc0:	e1a03000 	mov	r3, r0
   30bc4:	e59f2118 	ldr	r2, [pc, #118]	; 30ce4 <pci_scan+0x19c>
   30bc8:	e5823004 	str	r3, [r2, #4]
   30bcc:	e59d2000 	ldr	r2, [sp]
   30bd0:	e2823002 	add	r3, r2, #2	; 0x2
   30bd4:	e1a00003 	mov	r0, r3
   30bd8:	eb0001db 	bl	3134c <read_word>
   30bdc:	e1a03000 	mov	r3, r0
   30be0:	e59f20fc 	ldr	r2, [pc, #fc]	; 30ce4 <pci_scan+0x19c>
   30be4:	e5823008 	str	r3, [r2, #8]
   30be8:	e59f20f4 	ldr	r2, [pc, #f4]	; 30ce4 <pci_scan+0x19c>
   30bec:	e5923004 	ldr	r3, [r2, #4]
   30bf0:	e3a02cff 	mov	r2, #65280	; 0xff00
   30bf4:	e28220ff 	add	r2, r2, #255	; 0xff
   30bf8:	e1530002 	cmp	r3, r2
   30bfc:	0a00000e 	beq	30c3c <pci_scan+0xf4>
   30c00:	e59f30dc 	ldr	r3, [pc, #dc]	; 30ce4 <pci_scan+0x19c>
   30c04:	e5932004 	ldr	r2, [r3, #4]
   30c08:	e3520000 	cmp	r2, #0	; 0x0
   30c0c:	0a00000a 	beq	30c3c <pci_scan+0xf4>
   30c10:	e59f20cc 	ldr	r2, [pc, #cc]	; 30ce4 <pci_scan+0x19c>
   30c14:	e5923008 	ldr	r3, [r2, #8]
   30c18:	e3a02cff 	mov	r2, #65280	; 0xff00
   30c1c:	e28220ff 	add	r2, r2, #255	; 0xff
   30c20:	e1530002 	cmp	r3, r2
   30c24:	0a000004 	beq	30c3c <pci_scan+0xf4>
   30c28:	e59f30b4 	ldr	r3, [pc, #b4]	; 30ce4 <pci_scan+0x19c>
   30c2c:	e5932008 	ldr	r2, [r3, #8]
   30c30:	e3520000 	cmp	r2, #0	; 0x0
   30c34:	1a000001 	bne	30c40 <pci_scan+0xf8>
   30c38:	eaffffff 	b	30c3c <pci_scan+0xf4>
   30c3c:	ea000024 	b	30cd4 <pci_scan+0x18c>
   30c40:	e59d2000 	ldr	r2, [sp]
   30c44:	e282300e 	add	r3, r2, #14	; 0xe
   30c48:	e1a00003 	mov	r0, r3
   30c4c:	eb0001d1 	bl	31398 <read_byte>
   30c50:	e1a03000 	mov	r3, r0
   30c54:	e59f2088 	ldr	r2, [pc, #88]	; 30ce4 <pci_scan+0x19c>
   30c58:	e20330ff 	and	r3, r3, #255	; 0xff
   30c5c:	e5823014 	str	r3, [r2, #20]
   30c60:	e59d2000 	ldr	r2, [sp]
   30c64:	e2823004 	add	r3, r2, #4	; 0x4
   30c68:	e1a00003 	mov	r0, r3
   30c6c:	eb0001b6 	bl	3134c <read_word>
   30c70:	e1a03000 	mov	r3, r0
   30c74:	e59f2068 	ldr	r2, [pc, #68]	; 30ce4 <pci_scan+0x19c>
   30c78:	e582300c 	str	r3, [r2, #12]
   30c7c:	e59d2000 	ldr	r2, [sp]
   30c80:	e2823008 	add	r3, r2, #8	; 0x8
   30c84:	e1a00003 	mov	r0, r3
   30c88:	eb0001a6 	bl	31328 <read_long>
   30c8c:	e1a03000 	mov	r3, r0
   30c90:	e59f204c 	ldr	r2, [pc, #4c]	; 30ce4 <pci_scan+0x19c>
   30c94:	e1a03823 	mov	r3, r3, lsr #16
   30c98:	e5823010 	str	r3, [r2, #16]
   30c9c:	e59f3040 	ldr	r3, [pc, #40]	; 30ce4 <pci_scan+0x19c>
   30ca0:	e59d2000 	ldr	r2, [sp]
   30ca4:	e5832018 	str	r2, [r3, #24]
   30ca8:	e59f3034 	ldr	r3, [pc, #34]	; 30ce4 <pci_scan+0x19c>
   30cac:	e59d2008 	ldr	r2, [sp, #8]
   30cb0:	e5832000 	str	r2, [r3]
   30cb4:	e59f3028 	ldr	r3, [pc, #28]	; 30ce4 <pci_scan+0x19c>
   30cb8:	e5932014 	ldr	r2, [r3, #20]
   30cbc:	e2023080 	and	r3, r2, #128	; 0x80
   30cc0:	e58d3004 	str	r3, [sp, #4]
   30cc4:	e59d300c 	ldr	r3, [sp, #12]
   30cc8:	e59f0014 	ldr	r0, [pc, #14]	; 30ce4 <pci_scan+0x19c>
   30ccc:	e1a0e00f 	mov	lr, pc
   30cd0:	e1a0f003 	mov	pc, r3
   30cd4:	e59d3008 	ldr	r3, [sp, #8]
   30cd8:	e2832001 	add	r2, r3, #1	; 0x1
   30cdc:	e58d2008 	str	r2, [sp, #8]
   30ce0:	eaffff9f 	b	30b64 <pci_scan+0x1c>
   30ce4:	00035a20 	andeq	r5, r3, r0, lsr #20
   30ce8:	e28dd010 	add	sp, sp, #16	; 0x10
   30cec:	e8bd8000 	ldmia	sp!, {pc}

00030cf0 <pci_setup_card>:
   30cf0:	e52de004 	str	lr, [sp, -#4]!
   30cf4:	e24dd004 	sub	sp, sp, #4	; 0x4
   30cf8:	e58d0000 	str	r0, [sp]
   30cfc:	e59d3000 	ldr	r3, [sp]
   30d00:	e59d2000 	ldr	r2, [sp]
   30d04:	e592100c 	ldr	r1, [r2, #12]
   30d08:	e3c12007 	bic	r2, r1, #7	; 0x7
   30d0c:	e583200c 	str	r2, [r3, #12]
   30d10:	e59d3000 	ldr	r3, [sp]
   30d14:	e5932014 	ldr	r2, [r3, #20]
   30d18:	e202307f 	and	r3, r2, #127	; 0x7f
   30d1c:	e3530000 	cmp	r3, #0	; 0x0
   30d20:	1a000005 	bne	30d3c <pci_setup_card+0x4c>
   30d24:	e59d3000 	ldr	r3, [sp]
   30d28:	e59d1000 	ldr	r1, [sp]
   30d2c:	e281200c 	add	r2, r1, #12	; 0xc
   30d30:	e5930018 	ldr	r0, [r3, #24]
   30d34:	e1a01002 	mov	r1, r2
   30d38:	ebfffef1 	bl	30904 <pci_setup_cards_0>
   30d3c:	e59d3000 	ldr	r3, [sp]
   30d40:	e59d2000 	ldr	r2, [sp]
   30d44:	e5921018 	ldr	r1, [r2, #24]
   30d48:	e2812004 	add	r2, r1, #4	; 0x4
   30d4c:	e593000c 	ldr	r0, [r3, #12]
   30d50:	e1a01002 	mov	r1, r2
   30d54:	eb00018b 	bl	31388 <write_word>
   30d58:	e28dd004 	add	sp, sp, #4	; 0x4
   30d5c:	e8bd8000 	ldmia	sp!, {pc}

00030d60 <pci_setup_cards>:
   30d60:	e52de004 	str	lr, [sp, -#4]!
   30d64:	e59f0004 	ldr	r0, [pc, #4]	; 30d70 <pci_setup_cards+0x10>
   30d68:	ebffff76 	bl	30b48 <pci_scan>
   30d6c:	ea000000 	b	30d74 <pci_setup_cards+0x14>
   30d70:	00030cf0 	streqsh	r0, [r3], -r0
   30d74:	e8bd8000 	ldmia	sp!, {pc}

00030d78 <pci_print_card>:
   30d78:	e52de004 	str	lr, [sp, -#4]!
   30d7c:	e24dd024 	sub	sp, sp, #36	; 0x24
   30d80:	e58d0020 	str	r0, [sp, #32]
   30d84:	e59d3020 	ldr	r3, [sp, #32]
   30d88:	e5932000 	ldr	r2, [r3]
   30d8c:	e1a031a2 	mov	r3, r2, lsr #3
   30d90:	e59d2020 	ldr	r2, [sp, #32]
   30d94:	e5921000 	ldr	r1, [r2]
   30d98:	e2012007 	and	r2, r1, #7	; 0x7
   30d9c:	e59f016c 	ldr	r0, [pc, #16c]	; 30f10 <pci_print_card+0x198>
   30da0:	e1a01003 	mov	r1, r3
   30da4:	eb0009fe 	bl	335a4 <printf>
   30da8:	e59d3020 	ldr	r3, [sp, #32]
   30dac:	e59d2020 	ldr	r2, [sp, #32]
   30db0:	e59dc020 	ldr	r12, [sp, #32]
   30db4:	e59d1020 	ldr	r1, [sp, #32]
   30db8:	e591e00c 	ldr	lr, [r1, #12]
   30dbc:	e20e1004 	and	r1, lr, #4	; 0x4
   30dc0:	e3510000 	cmp	r1, #0	; 0x0
   30dc4:	0a000001 	beq	30dd0 <pci_print_card+0x58>
   30dc8:	e3a0102a 	mov	r1, #42	; 0x2a
   30dcc:	ea000000 	b	30dd4 <pci_print_card+0x5c>
   30dd0:	e3a01020 	mov	r1, #32	; 0x20
   30dd4:	e58d1000 	str	r1, [sp]
   30dd8:	e59d1020 	ldr	r1, [sp, #32]
   30ddc:	e591e00c 	ldr	lr, [r1, #12]
   30de0:	e20e1002 	and	r1, lr, #2	; 0x2
   30de4:	e3510000 	cmp	r1, #0	; 0x0
   30de8:	0a000001 	beq	30df4 <pci_print_card+0x7c>
   30dec:	e3a0102a 	mov	r1, #42	; 0x2a
   30df0:	ea000000 	b	30df8 <pci_print_card+0x80>
   30df4:	e3a01020 	mov	r1, #32	; 0x20
   30df8:	e58d1004 	str	r1, [sp, #4]
   30dfc:	e59d1020 	ldr	r1, [sp, #32]
   30e00:	e591e00c 	ldr	lr, [r1, #12]
   30e04:	e20e1001 	and	r1, lr, #1	; 0x1
   30e08:	e3510000 	cmp	r1, #0	; 0x0
   30e0c:	0a000001 	beq	30e18 <pci_print_card+0xa0>
   30e10:	e3a0102a 	mov	r1, #42	; 0x2a
   30e14:	ea000000 	b	30e1c <pci_print_card+0xa4>
   30e18:	e3a01020 	mov	r1, #32	; 0x20
   30e1c:	e58d1008 	str	r1, [sp, #8]
   30e20:	e59f00ec 	ldr	r0, [pc, #ec]	; 30f14 <pci_print_card+0x19c>
   30e24:	e5931004 	ldr	r1, [r3, #4]
   30e28:	e5922008 	ldr	r2, [r2, #8]
   30e2c:	e59c3010 	ldr	r3, [r12, #16]
   30e30:	eb0009db 	bl	335a4 <printf>
   30e34:	e59d3020 	ldr	r3, [sp, #32]
   30e38:	e5932018 	ldr	r2, [r3, #24]
   30e3c:	e2823010 	add	r3, r2, #16	; 0x10
   30e40:	e1a00003 	mov	r0, r3
   30e44:	eb000137 	bl	31328 <read_long>
   30e48:	e1a03000 	mov	r3, r0
   30e4c:	e58d3010 	str	r3, [sp, #16]
   30e50:	e59d3020 	ldr	r3, [sp, #32]
   30e54:	e5932018 	ldr	r2, [r3, #24]
   30e58:	e2823014 	add	r3, r2, #20	; 0x14
   30e5c:	e1a00003 	mov	r0, r3
   30e60:	eb000130 	bl	31328 <read_long>
   30e64:	e1a03000 	mov	r3, r0
   30e68:	e58d3014 	str	r3, [sp, #20]
   30e6c:	e59d3020 	ldr	r3, [sp, #32]
   30e70:	e5932018 	ldr	r2, [r3, #24]
   30e74:	e2823018 	add	r3, r2, #24	; 0x18
   30e78:	e1a00003 	mov	r0, r3
   30e7c:	eb000129 	bl	31328 <read_long>
   30e80:	e1a03000 	mov	r3, r0
   30e84:	e58d3018 	str	r3, [sp, #24]
   30e88:	e59d3020 	ldr	r3, [sp, #32]
   30e8c:	e5932018 	ldr	r2, [r3, #24]
   30e90:	e2823030 	add	r3, r2, #48	; 0x30
   30e94:	e1a00003 	mov	r0, r3
   30e98:	eb000122 	bl	31328 <read_long>
   30e9c:	e1a03000 	mov	r3, r0
   30ea0:	e58d301c 	str	r3, [sp, #28]
   30ea4:	e3a03000 	mov	r3, #0	; 0x0
   30ea8:	e58d300c 	str	r3, [sp, #12]
   30eac:	e59d300c 	ldr	r3, [sp, #12]
   30eb0:	e3530003 	cmp	r3, #3	; 0x3
   30eb4:	da000000 	ble	30ebc <pci_print_card+0x144>
   30eb8:	ea000018 	b	30f20 <pci_print_card+0x1a8>
   30ebc:	e59d300c 	ldr	r3, [sp, #12]
   30ec0:	e1a02003 	mov	r2, r3
   30ec4:	e1a03102 	mov	r3, r2, lsl #2
   30ec8:	e28d2010 	add	r2, sp, #16	; 0x10
   30ecc:	e7923003 	ldr	r3, [r2, r3]
   30ed0:	e3530000 	cmp	r3, #0	; 0x0
   30ed4:	0a000007 	beq	30ef8 <pci_print_card+0x180>
   30ed8:	e59d300c 	ldr	r3, [sp, #12]
   30edc:	e1a02003 	mov	r2, r3
   30ee0:	e1a03102 	mov	r3, r2, lsl #2
   30ee4:	e28d2010 	add	r2, sp, #16	; 0x10
   30ee8:	e59f0028 	ldr	r0, [pc, #28]	; 30f18 <pci_print_card+0x1a0>
   30eec:	e7921003 	ldr	r1, [r2, r3]
   30ef0:	eb0009ab 	bl	335a4 <printf>
   30ef4:	ea000001 	b	30f00 <pci_print_card+0x188>
   30ef8:	e59f001c 	ldr	r0, [pc, #1c]	; 30f1c <pci_print_card+0x1a4>
   30efc:	eb0009a8 	bl	335a4 <printf>
   30f00:	e59d300c 	ldr	r3, [sp, #12]
   30f04:	e2832001 	add	r2, r3, #1	; 0x1
   30f08:	e58d200c 	str	r2, [sp, #12]
   30f0c:	eaffffe6 	b	30eac <pci_print_card+0x134>
   30f10:	000348b0 	streqh	r4, [r3], -r0
   30f14:	000348b8 	streqh	r4, [r3], -r8
   30f18:	000348d4 	streqsb	r4, [r3], -r4
   30f1c:	000348dc 	streqsb	r4, [r3], -r12
   30f20:	e59f0004 	ldr	r0, [pc, #4]	; 30f2c <pci_print_card+0x1b4>
   30f24:	eb00099e 	bl	335a4 <printf>
   30f28:	ea000000 	b	30f30 <pci_print_card+0x1b8>
   30f2c:	000348e8 	andeq	r4, r3, r8, ror #17
   30f30:	e28dd024 	add	sp, sp, #36	; 0x24
   30f34:	e8bd8000 	ldmia	sp!, {pc}

00030f38 <pci_print_config>:
   30f38:	e52de004 	str	lr, [sp, -#4]!
   30f3c:	e59f001c 	ldr	r0, [pc, #1c]	; 30f60 <pci_print_config+0x28>
   30f40:	eb000997 	bl	335a4 <printf>
   30f44:	e59f0018 	ldr	r0, [pc, #18]	; 30f64 <pci_print_config+0x2c>
   30f48:	eb000995 	bl	335a4 <printf>
   30f4c:	e59f0014 	ldr	r0, [pc, #14]	; 30f68 <pci_print_config+0x30>
   30f50:	ebfffefc 	bl	30b48 <pci_scan>
   30f54:	e59f0010 	ldr	r0, [pc, #10]	; 30f6c <pci_print_config+0x34>
   30f58:	eb000991 	bl	335a4 <printf>
   30f5c:	ea000003 	b	30f70 <pci_print_config+0x38>
   30f60:	000348ec 	andeq	r4, r3, r12, ror #17
   30f64:	00034930 	andeq	r4, r3, r0, lsr r9
   30f68:	00030d78 	andeq	r0, r3, r8, ror sp
   30f6c:	00034970 	andeq	r4, r3, r0, ror r9
   30f70:	e8bd8000 	ldmia	sp!, {pc}

00030f74 <pci_lookupclass>:
   30f74:	e52de004 	str	lr, [sp, -#4]!
   30f78:	e24dd020 	sub	sp, sp, #32	; 0x20
   30f7c:	e1a03000 	mov	r3, r0
   30f80:	e5cd301e 	strb	r3, [sp, #30]
   30f84:	e1a03443 	mov	r3, r3, asr #8
   30f88:	e5cd301f 	strb	r3, [sp, #31]
   30f8c:	e3a03000 	mov	r3, #0	; 0x0
   30f90:	e58d3018 	str	r3, [sp, #24]
   30f94:	e3a03000 	mov	r3, #0	; 0x0
   30f98:	e58d3010 	str	r3, [sp, #16]
   30f9c:	e3a03000 	mov	r3, #0	; 0x0
   30fa0:	e58d3014 	str	r3, [sp, #20]
   30fa4:	e59d3014 	ldr	r3, [sp, #20]
   30fa8:	e353009f 	cmp	r3, #159	; 0x9f
   30fac:	da000000 	ble	30fb4 <pci_lookupclass+0x40>
   30fb0:	ea000045 	b	310cc <pci_lookupclass+0x158>
   30fb4:	e59d2014 	ldr	r2, [sp, #20]
   30fb8:	e2023007 	and	r3, r2, #7	; 0x7
   30fbc:	e3530000 	cmp	r3, #0	; 0x0
   30fc0:	0a000003 	beq	30fd4 <pci_lookupclass+0x60>
   30fc4:	e59d3010 	ldr	r3, [sp, #16]
   30fc8:	e3530000 	cmp	r3, #0	; 0x0
   30fcc:	1a000000 	bne	30fd4 <pci_lookupclass+0x60>
   30fd0:	ea000039 	b	310bc <pci_lookupclass+0x148>
   30fd4:	e59d2014 	ldr	r2, [sp, #20]
   30fd8:	e1a031c2 	mov	r3, r2, asr #3
   30fdc:	e59d1014 	ldr	r1, [sp, #20]
   30fe0:	e2012007 	and	r2, r1, #7	; 0x7
   30fe4:	e1a00003 	mov	r0, r3
   30fe8:	e1a01002 	mov	r1, r2
   30fec:	eb0000c2 	bl	312fc <pci_config_addr>
   30ff0:	e1a03000 	mov	r3, r0
   30ff4:	e58d3018 	str	r3, [sp, #24]
   30ff8:	e59d0018 	ldr	r0, [sp, #24]
   30ffc:	eb0000d2 	bl	3134c <read_word>
   31000:	e1a03000 	mov	r3, r0
   31004:	e58d300c 	str	r3, [sp, #12]
   31008:	e59d300c 	ldr	r3, [sp, #12]
   3100c:	e3a02cff 	mov	r2, #65280	; 0xff00
   31010:	e28220ff 	add	r2, r2, #255	; 0xff
   31014:	e1530002 	cmp	r3, r2
   31018:	0a000003 	beq	3102c <pci_lookupclass+0xb8>
   3101c:	e59d300c 	ldr	r3, [sp, #12]
   31020:	e3530000 	cmp	r3, #0	; 0x0
   31024:	1a000001 	bne	31030 <pci_lookupclass+0xbc>
   31028:	eaffffff 	b	3102c <pci_lookupclass+0xb8>
   3102c:	ea000022 	b	310bc <pci_lookupclass+0x148>
   31030:	e59d2018 	ldr	r2, [sp, #24]
   31034:	e282300e 	add	r3, r2, #14	; 0xe
   31038:	e1a00003 	mov	r0, r3
   3103c:	eb0000d5 	bl	31398 <read_byte>
   31040:	e1a03000 	mov	r3, r0
   31044:	e20320ff 	and	r2, r3, #255	; 0xff
   31048:	e58d2008 	str	r2, [sp, #8]
   3104c:	e59d2018 	ldr	r2, [sp, #24]
   31050:	e2823004 	add	r3, r2, #4	; 0x4
   31054:	e1a00003 	mov	r0, r3
   31058:	eb0000bb 	bl	3134c <read_word>
   3105c:	e1a03000 	mov	r3, r0
   31060:	e58d3000 	str	r3, [sp]
   31064:	e59d3008 	ldr	r3, [sp, #8]
   31068:	e2032080 	and	r2, r3, #128	; 0x80
   3106c:	e58d2010 	str	r2, [sp, #16]
   31070:	e59d2018 	ldr	r2, [sp, #24]
   31074:	e2823008 	add	r3, r2, #8	; 0x8
   31078:	e1a00003 	mov	r0, r3
   3107c:	eb0000a9 	bl	31328 <read_long>
   31080:	e1a03000 	mov	r3, r0
   31084:	e1a02823 	mov	r2, r3, lsr #16
   31088:	e58d2004 	str	r2, [sp, #4]
   3108c:	e28d201e 	add	r2, sp, #30	; 0x1e
   31090:	e5d23000 	ldrb	r3, [r2]
   31094:	e5d22001 	ldrb	r2, [r2, #1]
   31098:	e1833402 	orr	r3, r3, r2, lsl #8
   3109c:	e59d2004 	ldr	r2, [sp, #4]
   310a0:	e1520003 	cmp	r2, r3
   310a4:	1a000004 	bne	310bc <pci_lookupclass+0x148>
   310a8:	e59d2000 	ldr	r2, [sp]
   310ac:	e2023003 	and	r3, r2, #3	; 0x3
   310b0:	e3530000 	cmp	r3, #0	; 0x0
   310b4:	0a000000 	beq	310bc <pci_lookupclass+0x148>
   310b8:	ea000003 	b	310cc <pci_lookupclass+0x158>
   310bc:	e59d3014 	ldr	r3, [sp, #20]
   310c0:	e2832001 	add	r2, r3, #1	; 0x1
   310c4:	e58d2014 	str	r2, [sp, #20]
   310c8:	eaffffb5 	b	30fa4 <pci_lookupclass+0x30>
   310cc:	e59d3014 	ldr	r3, [sp, #20]
   310d0:	e353009f 	cmp	r3, #159	; 0x9f
   310d4:	ca000001 	bgt	310e0 <pci_lookupclass+0x16c>
   310d8:	e59d3018 	ldr	r3, [sp, #24]
   310dc:	ea000000 	b	310e4 <pci_lookupclass+0x170>
   310e0:	e3a03000 	mov	r3, #0	; 0x0
   310e4:	e1a00003 	mov	r0, r3
   310e8:	eaffffff 	b	310ec <pci_lookupclass+0x178>
   310ec:	e28dd020 	add	sp, sp, #32	; 0x20
   310f0:	e8bd8000 	ldmia	sp!, {pc}

000310f4 <pci_lookup_vendor_device>:
   310f4:	e52de004 	str	lr, [sp, -#4]!
   310f8:	e24dd01c 	sub	sp, sp, #28	; 0x1c
   310fc:	e1a02000 	mov	r2, r0
   31100:	e1a03001 	mov	r3, r1
   31104:	e5cd201a 	strb	r2, [sp, #26]
   31108:	e1a02442 	mov	r2, r2, asr #8
   3110c:	e5cd201b 	strb	r2, [sp, #27]
   31110:	e5cd3018 	strb	r3, [sp, #24]
   31114:	e1a03443 	mov	r3, r3, asr #8
   31118:	e5cd3019 	strb	r3, [sp, #25]
   3111c:	e3a03000 	mov	r3, #0	; 0x0
   31120:	e58d3014 	str	r3, [sp, #20]
   31124:	e3a03000 	mov	r3, #0	; 0x0
   31128:	e58d300c 	str	r3, [sp, #12]
   3112c:	e3a03000 	mov	r3, #0	; 0x0
   31130:	e58d3010 	str	r3, [sp, #16]
   31134:	e59d3010 	ldr	r3, [sp, #16]
   31138:	e353009f 	cmp	r3, #159	; 0x9f
   3113c:	da000000 	ble	31144 <pci_lookup_vendor_device+0x50>
   31140:	ea000041 	b	3124c <pci_lookup_vendor_device+0x158>
   31144:	e59d2010 	ldr	r2, [sp, #16]
   31148:	e2023007 	and	r3, r2, #7	; 0x7
   3114c:	e3530000 	cmp	r3, #0	; 0x0
   31150:	0a000003 	beq	31164 <pci_lookup_vendor_device+0x70>
   31154:	e59d300c 	ldr	r3, [sp, #12]
   31158:	e3530000 	cmp	r3, #0	; 0x0
   3115c:	1a000000 	bne	31164 <pci_lookup_vendor_device+0x70>
   31160:	ea000035 	b	3123c <pci_lookup_vendor_device+0x148>
   31164:	e59d2010 	ldr	r2, [sp, #16]
   31168:	e1a031c2 	mov	r3, r2, asr #3
   3116c:	e59d1010 	ldr	r1, [sp, #16]
   31170:	e2012007 	and	r2, r1, #7	; 0x7
   31174:	e1a00003 	mov	r0, r3
   31178:	e1a01002 	mov	r1, r2
   3117c:	eb00005e 	bl	312fc <pci_config_addr>
   31180:	e1a03000 	mov	r3, r0
   31184:	e58d3014 	str	r3, [sp, #20]
   31188:	e59d0014 	ldr	r0, [sp, #20]
   3118c:	eb00006e 	bl	3134c <read_word>
   31190:	e1a03000 	mov	r3, r0
   31194:	e58d3008 	str	r3, [sp, #8]
   31198:	e59d2014 	ldr	r2, [sp, #20]
   3119c:	e2823002 	add	r3, r2, #2	; 0x2
   311a0:	e1a00003 	mov	r0, r3
   311a4:	eb000068 	bl	3134c <read_word>
   311a8:	e1a03000 	mov	r3, r0
   311ac:	e58d3004 	str	r3, [sp, #4]
   311b0:	e59d3008 	ldr	r3, [sp, #8]
   311b4:	e3a02cff 	mov	r2, #65280	; 0xff00
   311b8:	e28220ff 	add	r2, r2, #255	; 0xff
   311bc:	e1530002 	cmp	r3, r2
   311c0:	0a000003 	beq	311d4 <pci_lookup_vendor_device+0xe0>
   311c4:	e59d3008 	ldr	r3, [sp, #8]
   311c8:	e3530000 	cmp	r3, #0	; 0x0
   311cc:	1a000001 	bne	311d8 <pci_lookup_vendor_device+0xe4>
   311d0:	eaffffff 	b	311d4 <pci_lookup_vendor_device+0xe0>
   311d4:	ea000018 	b	3123c <pci_lookup_vendor_device+0x148>
   311d8:	e59d2014 	ldr	r2, [sp, #20]
   311dc:	e282300e 	add	r3, r2, #14	; 0xe
   311e0:	e1a00003 	mov	r0, r3
   311e4:	eb00006b 	bl	31398 <read_byte>
   311e8:	e1a03000 	mov	r3, r0
   311ec:	e20320ff 	and	r2, r3, #255	; 0xff
   311f0:	e58d2000 	str	r2, [sp]
   311f4:	e59d3000 	ldr	r3, [sp]
   311f8:	e2032080 	and	r2, r3, #128	; 0x80
   311fc:	e58d200c 	str	r2, [sp, #12]
   31200:	e28d201a 	add	r2, sp, #26	; 0x1a
   31204:	e5d23000 	ldrb	r3, [r2]
   31208:	e5d22001 	ldrb	r2, [r2, #1]
   3120c:	e1833402 	orr	r3, r3, r2, lsl #8
   31210:	e59d2008 	ldr	r2, [sp, #8]
   31214:	e1530002 	cmp	r3, r2
   31218:	1a000007 	bne	3123c <pci_lookup_vendor_device+0x148>
   3121c:	e28d2018 	add	r2, sp, #24	; 0x18
   31220:	e5d23000 	ldrb	r3, [r2]
   31224:	e5d22001 	ldrb	r2, [r2, #1]
   31228:	e1833402 	orr	r3, r3, r2, lsl #8
   3122c:	e59d2004 	ldr	r2, [sp, #4]
   31230:	e1530002 	cmp	r3, r2
   31234:	1a000000 	bne	3123c <pci_lookup_vendor_device+0x148>
   31238:	ea000003 	b	3124c <pci_lookup_vendor_device+0x158>
   3123c:	e59d3010 	ldr	r3, [sp, #16]
   31240:	e2832001 	add	r2, r3, #1	; 0x1
   31244:	e58d2010 	str	r2, [sp, #16]
   31248:	eaffffb9 	b	31134 <pci_lookup_vendor_device+0x40>
   3124c:	e59d3010 	ldr	r3, [sp, #16]
   31250:	e353009f 	cmp	r3, #159	; 0x9f
   31254:	ca000001 	bgt	31260 <pci_lookup_vendor_device+0x16c>
   31258:	e59d3014 	ldr	r3, [sp, #20]
   3125c:	ea000000 	b	31264 <pci_lookup_vendor_device+0x170>
   31260:	e3a03000 	mov	r3, #0	; 0x0
   31264:	e1a00003 	mov	r0, r3
   31268:	eaffffff 	b	3126c <pci_lookup_vendor_device+0x178>
   3126c:	e28dd01c 	add	sp, sp, #28	; 0x1c
   31270:	e8bd8000 	ldmia	sp!, {pc}

00031274 <pci_init>:
   31274:	e52de004 	str	lr, [sp, -#4]!
   31278:	e59f301c 	ldr	r3, [pc, #1c]	; 3129c <pci_init+0x28>
   3127c:	e3a02902 	mov	r2, #32768	; 0x8000
   31280:	e5832000 	str	r2, [r3]
   31284:	e59f3014 	ldr	r3, [pc, #14]	; 312a0 <pci_init+0x2c>
   31288:	e3a02301 	mov	r2, #67108864	; 0x4000000
   3128c:	e5832000 	str	r2, [r3]
   31290:	ebfffd60 	bl	30818 <pci_init_hw>
   31294:	ebfffeb1 	bl	30d60 <pci_setup_cards>
   31298:	ea000001 	b	312a4 <pci_init+0x30>
   3129c:	00035588 	andeq	r5, r3, r8, lsl #11
   312a0:	0003558c 	andeq	r5, r3, r12, lsl #11
   312a4:	e8bd8000 	ldmia	sp!, {pc}

000312a8 <csr_write_long>:
   312a8:	e1a03000 	mov	r3, r0
   312ac:	e1a02001 	mov	r2, r1
   312b0:	e3a01442 	mov	r1, #1107296256	; 0x42000000
   312b4:	e7813002 	str	r3, [r1, r2]
   312b8:	e1a0f00e 	mov	pc, lr

000312bc <csr_write_word>:
   312bc:	e1a03000 	mov	r3, r0
   312c0:	e1a02001 	mov	r2, r1
   312c4:	e2821442 	add	r1, r2, #1107296256	; 0x42000000
   312c8:	e1c130b0 	strh	r3, [r1]
   312cc:	e1a0f00e 	mov	pc, lr

000312d0 <csr_read_long>:
   312d0:	e24dd004 	sub	sp, sp, #4	; 0x4
   312d4:	e1a03000 	mov	r3, r0
   312d8:	e3a01442 	mov	r1, #1107296256	; 0x42000000
   312dc:	e7912003 	ldr	r2, [r1, r3]
   312e0:	e1a01002 	mov	r1, r2
   312e4:	e58d1000 	str	r1, [sp]
   312e8:	e59d2000 	ldr	r2, [sp]
   312ec:	e1a00002 	mov	r0, r2
   312f0:	eaffffff 	b	312f4 <csr_read_long+0x24>
   312f4:	e28dd004 	add	sp, sp, #4	; 0x4
   312f8:	e1a0f00e 	mov	pc, lr

000312fc <pci_config_addr>:
   312fc:	e52de004 	str	lr, [sp, -#4]!
   31300:	e1a03000 	mov	r3, r0
   31304:	e1a02001 	mov	r2, r1
   31308:	e1a01583 	mov	r1, r3, lsl #11
   3130c:	e1a0e402 	mov	lr, r2, lsl #8
   31310:	e28ec47b 	add	r12, lr, #2063597568	; 0x7b000000
   31314:	e28cc503 	add	r12, r12, #12582912	; 0xc00000
   31318:	e081100c 	add	r1, r1, r12
   3131c:	e1a00001 	mov	r0, r1
   31320:	eaffffff 	b	31324 <pci_config_addr+0x28>
   31324:	e8bd8000 	ldmia	sp!, {pc}

00031328 <read_long>:
   31328:	e1a03000 	mov	r3, r0
   3132c:	e5932000 	ldr	r2, [r3]
   31330:	e1a00002 	mov	r0, r2
   31334:	eaffffff 	b	31338 <read_long+0x10>
   31338:	e1a0f00e 	mov	pc, lr

0003133c <write_long>:
   3133c:	e1a03000 	mov	r3, r0
   31340:	e1a02001 	mov	r2, r1
   31344:	e5823000 	str	r3, [r2]
   31348:	e1a0f00e 	mov	pc, lr

0003134c <read_word>:
   3134c:	e24dd004 	sub	sp, sp, #4	; 0x4
   31350:	e1a03000 	mov	r3, r0
   31354:	e1d320b0 	ldrh	r2, [r3]
   31358:	e1a01002 	mov	r1, r2
   3135c:	e5cd1002 	strb	r1, [sp, #2]
   31360:	e1a02441 	mov	r2, r1, asr #8
   31364:	e5cd2003 	strb	r2, [sp, #3]
   31368:	e28d1002 	add	r1, sp, #2	; 0x2
   3136c:	e5d12000 	ldrb	r2, [r1]
   31370:	e5d11001 	ldrb	r1, [r1, #1]
   31374:	e1822401 	orr	r2, r2, r1, lsl #8
   31378:	e1a00002 	mov	r0, r2
   3137c:	eaffffff 	b	31380 <read_word+0x34>
   31380:	e28dd004 	add	sp, sp, #4	; 0x4
   31384:	e1a0f00e 	mov	pc, lr

00031388 <write_word>:
   31388:	e1a03000 	mov	r3, r0
   3138c:	e1a02001 	mov	r2, r1
   31390:	e1c230b0 	strh	r3, [r2]
   31394:	e1a0f00e 	mov	pc, lr

00031398 <read_byte>:
   31398:	e1a03000 	mov	r3, r0
   3139c:	e5d31000 	ldrb	r1, [r3]
   313a0:	e20120ff 	and	r2, r1, #255	; 0xff
   313a4:	e1a00002 	mov	r0, r2
   313a8:	eaffffff 	b	313ac <read_byte+0x14>
   313ac:	e1a0f00e 	mov	pc, lr

000313b0 <write_byte>:
   313b0:	e52de004 	str	lr, [sp, -#4]!
   313b4:	e1a02000 	mov	r2, r0
   313b8:	e1a03001 	mov	r3, r1
   313bc:	e20210ff 	and	r1, r2, #255	; 0xff
   313c0:	e1a0c001 	mov	r12, r1
   313c4:	e1a0e00c 	mov	lr, r12
   313c8:	e5c3e000 	strb	lr, [r3]
   313cc:	e8bd8000 	ldmia	sp!, {pc}

000313d0 <pci_alloc>:
   313d0:	e24dd004 	sub	sp, sp, #4	; 0x4
   313d4:	e1a02000 	mov	r2, r0
   313d8:	e1a03001 	mov	r3, r1
   313dc:	e592c000 	ldr	r12, [r2]
   313e0:	e24c1001 	sub	r1, r12, #1	; 0x1
   313e4:	e081c003 	add	r12, r1, r3
   313e8:	e582c000 	str	r12, [r2]
   313ec:	e2431001 	sub	r1, r3, #1	; 0x1
   313f0:	e1e0c001 	mvn	r12, r1
   313f4:	e5921000 	ldr	r1, [r2]
   313f8:	e001c00c 	and	r12, r1, r12
   313fc:	e582c000 	str	r12, [r2]
   31400:	e5921000 	ldr	r1, [r2]
   31404:	e58d1000 	str	r1, [sp]
   31408:	e5921000 	ldr	r1, [r2]
   3140c:	e081c003 	add	r12, r1, r3
   31410:	e582c000 	str	r12, [r2]
   31414:	e59d1000 	ldr	r1, [sp]
   31418:	e1a00001 	mov	r0, r1
   3141c:	eaffffff 	b	31420 <pci_alloc+0x50>
   31420:	e28dd004 	add	sp, sp, #4	; 0x4
   31424:	e1a0f00e 	mov	pc, lr

00031428 <ide_input_data>:
   31428:	e52de004 	str	lr, [sp, -#4]!
   3142c:	e24dd010 	sub	sp, sp, #16	; 0x10
   31430:	e58d000c 	str	r0, [sp, #12]
   31434:	e58d1008 	str	r1, [sp, #8]
   31438:	e58d2004 	str	r2, [sp, #4]
   3143c:	e59d3008 	ldr	r3, [sp, #8]
   31440:	e58d3000 	str	r3, [sp]
   31444:	e59d3004 	ldr	r3, [sp, #4]
   31448:	e3530000 	cmp	r3, #0	; 0x0
   3144c:	ca000000 	bgt	31454 <ide_input_data+0x2c>
   31450:	ea000011 	b	3149c <ide_input_data+0x74>
   31454:	e59d3004 	ldr	r3, [sp, #4]
   31458:	e2432002 	sub	r2, r3, #2	; 0x2
   3145c:	e58d2004 	str	r2, [sp, #4]
   31460:	e59d300c 	ldr	r3, [sp, #12]
   31464:	e5932000 	ldr	r2, [r3]
   31468:	e5921000 	ldr	r1, [r2]
   3146c:	e281331f 	add	r3, r1, #2080374784	; 0x7c000000
   31470:	e1a00003 	mov	r0, r3
   31474:	eb000538 	bl	3295c <read_word>
   31478:	e1a01000 	mov	r1, r0
   3147c:	e1a0300d 	mov	r3, sp
   31480:	e5932000 	ldr	r2, [r3]
   31484:	e5c21000 	strb	r1, [r2]
   31488:	e1a01441 	mov	r1, r1, asr #8
   3148c:	e5c21001 	strb	r1, [r2, #1]
   31490:	e2822002 	add	r2, r2, #2	; 0x2
   31494:	e5832000 	str	r2, [r3]
   31498:	eaffffe9 	b	31444 <ide_input_data+0x1c>
   3149c:	e28dd010 	add	sp, sp, #16	; 0x10
   314a0:	e8bd8000 	ldmia	sp!, {pc}

000314a4 <ide_fixstring>:
   314a4:	e52de004 	str	lr, [sp, -#4]!
   314a8:	e24dd018 	sub	sp, sp, #24	; 0x18
   314ac:	e58d0014 	str	r0, [sp, #20]
   314b0:	e58d1010 	str	r1, [sp, #16]
   314b4:	e58d200c 	str	r2, [sp, #12]
   314b8:	e59d3014 	ldr	r3, [sp, #20]
   314bc:	e58d3008 	str	r3, [sp, #8]
   314c0:	e59d2010 	ldr	r2, [sp, #16]
   314c4:	e3c23001 	bic	r3, r2, #1	; 0x1
   314c8:	e59d2014 	ldr	r2, [sp, #20]
   314cc:	e0823003 	add	r3, r2, r3
   314d0:	e58d3004 	str	r3, [sp, #4]
   314d4:	e59d300c 	ldr	r3, [sp, #12]
   314d8:	e3530000 	cmp	r3, #0	; 0x0
   314dc:	0a000025 	beq	31578 <ide_fixstring+0xd4>
   314e0:	e59d3004 	ldr	r3, [sp, #4]
   314e4:	e58d3008 	str	r3, [sp, #8]
   314e8:	e59d3008 	ldr	r3, [sp, #8]
   314ec:	e59d2014 	ldr	r2, [sp, #20]
   314f0:	e1530002 	cmp	r3, r2
   314f4:	1a000000 	bne	314fc <ide_fixstring+0x58>
   314f8:	ea00001e 	b	31578 <ide_fixstring+0xd4>
   314fc:	e59d2008 	ldr	r2, [sp, #8]
   31500:	e2423002 	sub	r3, r2, #2	; 0x2
   31504:	e1a02003 	mov	r2, r3
   31508:	e58d2008 	str	r2, [sp, #8]
   3150c:	e58d2000 	str	r2, [sp]
   31510:	e59d3000 	ldr	r3, [sp]
   31514:	e59d2000 	ldr	r2, [sp]
   31518:	e1a01002 	mov	r1, r2
   3151c:	e5d12000 	ldrb	r2, [r1]
   31520:	e5d1c001 	ldrb	r12, [r1, #1]
   31524:	e182140c 	orr	r1, r2, r12, lsl #8
   31528:	e1a02001 	mov	r2, r1
   3152c:	e20210ff 	and	r1, r2, #255	; 0xff
   31530:	e1a0c001 	mov	r12, r1
   31534:	e1a0240c 	mov	r2, r12, lsl #8
   31538:	e59d1000 	ldr	r1, [sp]
   3153c:	e1a0c001 	mov	r12, r1
   31540:	e5dc1000 	ldrb	r1, [r12]
   31544:	e5dce001 	ldrb	lr, [r12, #1]
   31548:	e181c40e 	orr	r12, r1, lr, lsl #8
   3154c:	e1a0100c 	mov	r1, r12
   31550:	e201ccff 	and	r12, r1, #65280	; 0xff00
   31554:	e1a0e80c 	mov	lr, r12, lsl #16
   31558:	e1a0182e 	mov	r1, lr, lsr #16
   3155c:	e1a0c421 	mov	r12, r1, lsr #8
   31560:	e1a0100c 	mov	r1, r12
   31564:	e1822001 	orr	r2, r2, r1
   31568:	e5c32000 	strb	r2, [r3]
   3156c:	e1a02442 	mov	r2, r2, asr #8
   31570:	e5c32001 	strb	r2, [r3, #1]
   31574:	eaffffdb 	b	314e8 <ide_fixstring+0x44>
   31578:	e1a00000 	nop			(mov r0,r0)
   3157c:	e59d3014 	ldr	r3, [sp, #20]
   31580:	e59d2004 	ldr	r2, [sp, #4]
   31584:	e1530002 	cmp	r3, r2
   31588:	0a000004 	beq	315a0 <ide_fixstring+0xfc>
   3158c:	e59d3014 	ldr	r3, [sp, #20]
   31590:	e5d32000 	ldrb	r2, [r3]
   31594:	e3520020 	cmp	r2, #32	; 0x20
   31598:	0a000001 	beq	315a4 <ide_fixstring+0x100>
   3159c:	eaffffff 	b	315a0 <ide_fixstring+0xfc>
   315a0:	ea000003 	b	315b4 <ide_fixstring+0x110>
   315a4:	e59d3014 	ldr	r3, [sp, #20]
   315a8:	e2832001 	add	r2, r3, #1	; 0x1
   315ac:	e58d2014 	str	r2, [sp, #20]
   315b0:	eafffff1 	b	3157c <ide_fixstring+0xd8>
   315b4:	e1a00000 	nop			(mov r0,r0)
   315b8:	e59d3014 	ldr	r3, [sp, #20]
   315bc:	e59d2004 	ldr	r2, [sp, #4]
   315c0:	e1530002 	cmp	r3, r2
   315c4:	0a000004 	beq	315dc <ide_fixstring+0x138>
   315c8:	e59d3014 	ldr	r3, [sp, #20]
   315cc:	e5d32000 	ldrb	r2, [r3]
   315d0:	e3520000 	cmp	r2, #0	; 0x0
   315d4:	1a000001 	bne	315e0 <ide_fixstring+0x13c>
   315d8:	eaffffff 	b	315dc <ide_fixstring+0x138>
   315dc:	ea00001d 	b	31658 <ide_fixstring+0x1b4>
   315e0:	e28d3014 	add	r3, sp, #20	; 0x14
   315e4:	e5932000 	ldr	r2, [r3]
   315e8:	e5d21000 	ldrb	r1, [r2]
   315ec:	e2822001 	add	r2, r2, #1	; 0x1
   315f0:	e5832000 	str	r2, [r3]
   315f4:	e3510020 	cmp	r1, #32	; 0x20
   315f8:	1a00000c 	bne	31630 <ide_fixstring+0x18c>
   315fc:	e59d3014 	ldr	r3, [sp, #20]
   31600:	e59d2004 	ldr	r2, [sp, #4]
   31604:	e1530002 	cmp	r3, r2
   31608:	0a000011 	beq	31654 <ide_fixstring+0x1b0>
   3160c:	e59d3014 	ldr	r3, [sp, #20]
   31610:	e5d32000 	ldrb	r2, [r3]
   31614:	e3520000 	cmp	r2, #0	; 0x0
   31618:	0a00000d 	beq	31654 <ide_fixstring+0x1b0>
   3161c:	e59d3014 	ldr	r3, [sp, #20]
   31620:	e5d32000 	ldrb	r2, [r3]
   31624:	e3520020 	cmp	r2, #32	; 0x20
   31628:	1a000000 	bne	31630 <ide_fixstring+0x18c>
   3162c:	ea000008 	b	31654 <ide_fixstring+0x1b0>
   31630:	e28d3008 	add	r3, sp, #8	; 0x8
   31634:	e5932000 	ldr	r2, [r3]
   31638:	e3e01000 	mvn	r1, #0	; 0x0
   3163c:	e59dc014 	ldr	r12, [sp, #20]
   31640:	e081100c 	add	r1, r1, r12
   31644:	e5d1c000 	ldrb	r12, [r1]
   31648:	e5c2c000 	strb	r12, [r2]
   3164c:	e2822001 	add	r2, r2, #1	; 0x1
   31650:	e5832000 	str	r2, [r3]
   31654:	eaffffd7 	b	315b8 <ide_fixstring+0x114>
   31658:	e1a00000 	nop			(mov r0,r0)
   3165c:	e59d3008 	ldr	r3, [sp, #8]
   31660:	e59d2004 	ldr	r2, [sp, #4]
   31664:	e1530002 	cmp	r3, r2
   31668:	1a000000 	bne	31670 <ide_fixstring+0x1cc>
   3166c:	ea000007 	b	31690 <ide_fixstring+0x1ec>
   31670:	e28d3008 	add	r3, sp, #8	; 0x8
   31674:	e5932000 	ldr	r2, [r3]
   31678:	e3a01000 	mov	r1, #0	; 0x0
   3167c:	e1a0c001 	mov	r12, r1
   31680:	e5c2c000 	strb	r12, [r2]
   31684:	e2822001 	add	r2, r2, #1	; 0x1
   31688:	e5832000 	str	r2, [r3]
   3168c:	eafffff2 	b	3165c <ide_fixstring+0x1b8>
   31690:	e28dd018 	add	sp, sp, #24	; 0x18
   31694:	e8bd8000 	ldmia	sp!, {pc}

00031698 <lba_ok>:
   31698:	e92d4010 	stmdb	sp!, {r4, lr}
   3169c:	e24dd014 	sub	sp, sp, #20	; 0x14
   316a0:	e58d0010 	str	r0, [sp, #16]
   316a4:	e58d100c 	str	r1, [sp, #12]
   316a8:	e59d300c 	ldr	r3, [sp, #12]
   316ac:	e5932078 	ldr	r2, [r3, #120]
   316b0:	e58d2008 	str	r2, [sp, #8]
   316b4:	e59d300c 	ldr	r3, [sp, #12]
   316b8:	e2832002 	add	r2, r3, #2	; 0x2
   316bc:	e5d23000 	ldrb	r3, [r2]
   316c0:	e5d22001 	ldrb	r2, [r2, #1]
   316c4:	e1833402 	orr	r3, r3, r2, lsl #8
   316c8:	e59d200c 	ldr	r2, [sp, #12]
   316cc:	e2821006 	add	r1, r2, #6	; 0x6
   316d0:	e5d12000 	ldrb	r2, [r1]
   316d4:	e5d11001 	ldrb	r1, [r1, #1]
   316d8:	e1822401 	orr	r2, r2, r1, lsl #8
   316dc:	e0030392 	mul	r3, r2, r3
   316e0:	e59d200c 	ldr	r2, [sp, #12]
   316e4:	e282100c 	add	r1, r2, #12	; 0xc
   316e8:	e5d12000 	ldrb	r2, [r1]
   316ec:	e5d11001 	ldrb	r1, [r1, #1]
   316f0:	e1822401 	orr	r2, r2, r1, lsl #8
   316f4:	e0030392 	mul	r3, r2, r3
   316f8:	e58d3004 	str	r3, [sp, #4]
   316fc:	e59d3004 	ldr	r3, [sp, #4]
   31700:	e1a00003 	mov	r0, r3
   31704:	e3a0100a 	mov	r1, #10	; 0xa
   31708:	eb000bcc 	bl	34640 <__udivsi3>
   3170c:	e1a03000 	mov	r3, r0
   31710:	e58d3000 	str	r3, [sp]
   31714:	e59d300c 	ldr	r3, [sp, #12]
   31718:	e2832002 	add	r2, r3, #2	; 0x2
   3171c:	e5d23000 	ldrb	r3, [r2]
   31720:	e5d22001 	ldrb	r2, [r2, #1]
   31724:	e1833402 	orr	r3, r3, r2, lsl #8
   31728:	e3a02dff 	mov	r2, #16320	; 0x3fc0
   3172c:	e282203f 	add	r2, r2, #63	; 0x3f
   31730:	e1530002 	cmp	r3, r2
   31734:	1a000022 	bne	317c4 <lba_ok+0x12c>
   31738:	e59d300c 	ldr	r3, [sp, #12]
   3173c:	e2832006 	add	r2, r3, #6	; 0x6
   31740:	e5d23000 	ldrb	r3, [r2]
   31744:	e5d22001 	ldrb	r2, [r2, #1]
   31748:	e1833402 	orr	r3, r3, r2, lsl #8
   3174c:	e3530010 	cmp	r3, #16	; 0x10
   31750:	1a00001b 	bne	317c4 <lba_ok+0x12c>
   31754:	e59d300c 	ldr	r3, [sp, #12]
   31758:	e283200c 	add	r2, r3, #12	; 0xc
   3175c:	e5d23000 	ldrb	r3, [r2]
   31760:	e5d22001 	ldrb	r2, [r2, #1]
   31764:	e1833402 	orr	r3, r3, r2, lsl #8
   31768:	e353003f 	cmp	r3, #63	; 0x3f
   3176c:	1a000014 	bne	317c4 <lba_ok+0x12c>
   31770:	e59d3008 	ldr	r3, [sp, #8]
   31774:	e59d2004 	ldr	r2, [sp, #4]
   31778:	e1530002 	cmp	r3, r2
   3177c:	9a000010 	bls	317c4 <lba_ok+0x12c>
   31780:	e59d400c 	ldr	r4, [sp, #12]
   31784:	e59d3008 	ldr	r3, [sp, #8]
   31788:	e1a00003 	mov	r0, r3
   3178c:	e3a01e3f 	mov	r1, #1008	; 0x3f0
   31790:	eb000baa 	bl	34640 <__udivsi3>
   31794:	e1a03000 	mov	r3, r0
   31798:	e2841002 	add	r1, r4, #2	; 0x2
   3179c:	e5d12000 	ldrb	r2, [r1]
   317a0:	e5d1c001 	ldrb	r12, [r1, #1]
   317a4:	e182140c 	orr	r1, r2, r12, lsl #8
   317a8:	e1a02001 	mov	r2, r1
   317ac:	e1a02003 	mov	r2, r3
   317b0:	e5c42002 	strb	r2, [r4, #2]
   317b4:	e1a03442 	mov	r3, r2, asr #8
   317b8:	e5c43003 	strb	r3, [r4, #3]
   317bc:	e3a00001 	mov	r0, #1	; 0x1
   317c0:	ea000017 	b	31824 <lba_ok+0x18c>
   317c4:	e59d3008 	ldr	r3, [sp, #8]
   317c8:	e59d2004 	ldr	r2, [sp, #4]
   317cc:	e0623003 	rsb	r3, r2, r3
   317d0:	e59d2000 	ldr	r2, [sp]
   317d4:	e1530002 	cmp	r3, r2
   317d8:	2a000001 	bcs	317e4 <lba_ok+0x14c>
   317dc:	e3a00001 	mov	r0, #1	; 0x1
   317e0:	ea00000f 	b	31824 <lba_ok+0x18c>
   317e4:	e59d3008 	ldr	r3, [sp, #8]
   317e8:	e1a02863 	mov	r2, r3, ror #16
   317ec:	e58d2008 	str	r2, [sp, #8]
   317f0:	e59d3008 	ldr	r3, [sp, #8]
   317f4:	e59d2004 	ldr	r2, [sp, #4]
   317f8:	e0623003 	rsb	r3, r2, r3
   317fc:	e59d2000 	ldr	r2, [sp]
   31800:	e1530002 	cmp	r3, r2
   31804:	2a000004 	bcs	3181c <lba_ok+0x184>
   31808:	e59d300c 	ldr	r3, [sp, #12]
   3180c:	e59d2008 	ldr	r2, [sp, #8]
   31810:	e5832078 	str	r2, [r3, #120]
   31814:	e3a00001 	mov	r0, #1	; 0x1
   31818:	ea000001 	b	31824 <lba_ok+0x18c>
   3181c:	e3a00000 	mov	r0, #0	; 0x0
   31820:	eaffffff 	b	31824 <lba_ok+0x18c>
   31824:	e28dd014 	add	sp, sp, #20	; 0x14
   31828:	e8bd8010 	ldmia	sp!, {r4, pc}

0003182c <idx>:
   3182c:	e24dd00c 	sub	sp, sp, #12	; 0xc
   31830:	e58d0008 	str	r0, [sp, #8]
   31834:	e58d1004 	str	r1, [sp, #4]
   31838:	e3a03000 	mov	r3, #0	; 0x0
   3183c:	e58d3000 	str	r3, [sp]
   31840:	e59d3000 	ldr	r3, [sp]
   31844:	e1a02003 	mov	r2, r3
   31848:	e1a03102 	mov	r3, r2, lsl #2
   3184c:	e59d2004 	ldr	r2, [sp, #4]
   31850:	e0833002 	add	r3, r3, r2
   31854:	e5932000 	ldr	r2, [r3]
   31858:	e3520000 	cmp	r2, #0	; 0x0
   3185c:	1a000000 	bne	31864 <idx+0x38>
   31860:	ea00000d 	b	3189c <idx+0x70>
   31864:	e59d3000 	ldr	r3, [sp]
   31868:	e1a02003 	mov	r2, r3
   3186c:	e1a03102 	mov	r3, r2, lsl #2
   31870:	e59d2004 	ldr	r2, [sp, #4]
   31874:	e0833002 	add	r3, r3, r2
   31878:	e59d2008 	ldr	r2, [sp, #8]
   3187c:	e5933000 	ldr	r3, [r3]
   31880:	e1520003 	cmp	r2, r3
   31884:	3a000000 	bcc	3188c <idx+0x60>
   31888:	ea000003 	b	3189c <idx+0x70>
   3188c:	e59d3000 	ldr	r3, [sp]
   31890:	e2832001 	add	r2, r3, #1	; 0x1
   31894:	e58d2000 	str	r2, [sp]
   31898:	eaffffe8 	b	31840 <idx+0x14>
   3189c:	e59d3000 	ldr	r3, [sp]
   318a0:	e1a00003 	mov	r0, r3
   318a4:	eaffffff 	b	318a8 <idx+0x7c>
   318a8:	e28dd00c 	add	sp, sp, #12	; 0xc
   318ac:	e1a0f00e 	mov	pc, lr

000318b0 <ide_identify>:
   318b0:	e52de004 	str	lr, [sp, -#4]!
   318b4:	e24ddf89 	sub	sp, sp, #548	; 0x224
   318b8:	e58d0220 	str	r0, [sp, #544]
   318bc:	e1a03001 	mov	r3, r1
   318c0:	e1a02003 	mov	r2, r3
   318c4:	e5cd221f 	strb	r2, [sp, #543]
   318c8:	e28d301c 	add	r3, sp, #28	; 0x1c
   318cc:	e58d3018 	str	r3, [sp, #24]
   318d0:	e59d0220 	ldr	r0, [sp, #544]
   318d4:	eb00043d 	bl	329d0 <ide_get_status_reg>
   318d8:	e1a03000 	mov	r3, r0
   318dc:	e58d3014 	str	r3, [sp, #20]
   318e0:	e5dd321f 	ldrb	r3, [sp, #543]
   318e4:	e59d0220 	ldr	r0, [sp, #544]
   318e8:	e1a01003 	mov	r1, r3
   318ec:	e3a02ebb 	mov	r2, #2992	; 0xbb0
   318f0:	e2822008 	add	r2, r2, #8	; 0x8
   318f4:	e59d3014 	ldr	r3, [sp, #20]
   318f8:	eb000453 	bl	32a4c <ide_send_command>
   318fc:	e1a03000 	mov	r3, r0
   31900:	e3530000 	cmp	r3, #0	; 0x0
   31904:	0a000001 	beq	31910 <ide_identify+0x60>
   31908:	e3a00001 	mov	r0, #1	; 0x1
   3190c:	ea0000d3 	b	31c60 <ide_identify+0x3b0>
   31910:	e59d0220 	ldr	r0, [sp, #544]
   31914:	e3a01008 	mov	r1, #8	; 0x8
   31918:	e3a02081 	mov	r2, #129	; 0x81
   3191c:	eb000472 	bl	32aec <ide_status_ok>
   31920:	e1a03000 	mov	r3, r0
   31924:	e3530000 	cmp	r3, #0	; 0x0
   31928:	0a0000c3 	beq	31c3c <ide_identify+0x38c>
   3192c:	e28d301c 	add	r3, sp, #28	; 0x1c
   31930:	e59d0220 	ldr	r0, [sp, #544]
   31934:	e1a01003 	mov	r1, r3
   31938:	e3a02c02 	mov	r2, #512	; 0x200
   3193c:	ebfffeb9 	bl	31428 <ide_input_data>
   31940:	e59d2018 	ldr	r2, [sp, #24]
   31944:	e2823036 	add	r3, r2, #54	; 0x36
   31948:	e1a00003 	mov	r0, r3
   3194c:	e3a01028 	mov	r1, #40	; 0x28
   31950:	e3a02001 	mov	r2, #1	; 0x1
   31954:	ebfffed2 	bl	314a4 <ide_fixstring>
   31958:	e59d3018 	ldr	r3, [sp, #24]
   3195c:	e3a02000 	mov	r2, #0	; 0x0
   31960:	e1a01002 	mov	r1, r2
   31964:	e5c3105d 	strb	r1, [r3, #93]
   31968:	e59d2018 	ldr	r2, [sp, #24]
   3196c:	e2823036 	add	r3, r2, #54	; 0x36
   31970:	e59f02d8 	ldr	r0, [pc, #2d8]	; 31c50 <ide_identify+0x3a0>
   31974:	e1a01003 	mov	r1, r3
   31978:	eb000709 	bl	335a4 <printf>
   3197c:	e59d3220 	ldr	r3, [sp, #544]
   31980:	e59d2018 	ldr	r2, [sp, #24]
   31984:	e282100c 	add	r1, r2, #12	; 0xc
   31988:	e5d12000 	ldrb	r2, [r1]
   3198c:	e5d11001 	ldrb	r1, [r1, #1]
   31990:	e1822401 	orr	r2, r2, r1, lsl #8
   31994:	e5832004 	str	r2, [r3, #4]
   31998:	e59d3220 	ldr	r3, [sp, #544]
   3199c:	e59d2018 	ldr	r2, [sp, #24]
   319a0:	e2821006 	add	r1, r2, #6	; 0x6
   319a4:	e5d12000 	ldrb	r2, [r1]
   319a8:	e5d11001 	ldrb	r1, [r1, #1]
   319ac:	e1822401 	orr	r2, r2, r1, lsl #8
   319b0:	e5832008 	str	r2, [r3, #8]
   319b4:	e59d3220 	ldr	r3, [sp, #544]
   319b8:	e59d2018 	ldr	r2, [sp, #24]
   319bc:	e2821002 	add	r1, r2, #2	; 0x2
   319c0:	e5d12000 	ldrb	r2, [r1]
   319c4:	e5d11001 	ldrb	r1, [r1, #1]
   319c8:	e1822401 	orr	r2, r2, r1, lsl #8
   319cc:	e583200c 	str	r2, [r3, #12]
   319d0:	e59d3018 	ldr	r3, [sp, #24]
   319d4:	e283206a 	add	r2, r3, #106	; 0x6a
   319d8:	e5d23000 	ldrb	r3, [r2]
   319dc:	e5d21001 	ldrb	r1, [r2, #1]
   319e0:	e1832401 	orr	r2, r3, r1, lsl #8
   319e4:	e1a03002 	mov	r3, r2
   319e8:	e2032001 	and	r2, r3, #1	; 0x1
   319ec:	e1a01802 	mov	r1, r2, lsl #16
   319f0:	e1a03821 	mov	r3, r1, lsr #16
   319f4:	e3530000 	cmp	r3, #0	; 0x0
   319f8:	0a000062 	beq	31b88 <ide_identify+0x2d8>
   319fc:	e59d3018 	ldr	r3, [sp, #24]
   31a00:	e283206c 	add	r2, r3, #108	; 0x6c
   31a04:	e5d23000 	ldrb	r3, [r2]
   31a08:	e5d22001 	ldrb	r2, [r2, #1]
   31a0c:	e1833402 	orr	r3, r3, r2, lsl #8
   31a10:	e3530000 	cmp	r3, #0	; 0x0
   31a14:	0a00005b 	beq	31b88 <ide_identify+0x2d8>
   31a18:	e59d3018 	ldr	r3, [sp, #24]
   31a1c:	e283206e 	add	r2, r3, #110	; 0x6e
   31a20:	e5d23000 	ldrb	r3, [r2]
   31a24:	e5d22001 	ldrb	r2, [r2, #1]
   31a28:	e1833402 	orr	r3, r3, r2, lsl #8
   31a2c:	e3530000 	cmp	r3, #0	; 0x0
   31a30:	0a000054 	beq	31b88 <ide_identify+0x2d8>
   31a34:	e59d3018 	ldr	r3, [sp, #24]
   31a38:	e283206e 	add	r2, r3, #110	; 0x6e
   31a3c:	e5d23000 	ldrb	r3, [r2]
   31a40:	e5d22001 	ldrb	r2, [r2, #1]
   31a44:	e1833402 	orr	r3, r3, r2, lsl #8
   31a48:	e3530010 	cmp	r3, #16	; 0x10
   31a4c:	8a00004d 	bhi	31b88 <ide_identify+0x2d8>
   31a50:	e59d3018 	ldr	r3, [sp, #24]
   31a54:	e2832070 	add	r2, r3, #112	; 0x70
   31a58:	e5d23000 	ldrb	r3, [r2]
   31a5c:	e5d22001 	ldrb	r2, [r2, #1]
   31a60:	e1833402 	orr	r3, r3, r2, lsl #8
   31a64:	e3530000 	cmp	r3, #0	; 0x0
   31a68:	0a000046 	beq	31b88 <ide_identify+0x2d8>
   31a6c:	e59d3220 	ldr	r3, [sp, #544]
   31a70:	e59d2018 	ldr	r2, [sp, #24]
   31a74:	e2821070 	add	r1, r2, #112	; 0x70
   31a78:	e5d12000 	ldrb	r2, [r1]
   31a7c:	e5d11001 	ldrb	r1, [r1, #1]
   31a80:	e1822401 	orr	r2, r2, r1, lsl #8
   31a84:	e5832004 	str	r2, [r3, #4]
   31a88:	e59d3220 	ldr	r3, [sp, #544]
   31a8c:	e59d2018 	ldr	r2, [sp, #24]
   31a90:	e282106e 	add	r1, r2, #110	; 0x6e
   31a94:	e5d12000 	ldrb	r2, [r1]
   31a98:	e5d11001 	ldrb	r1, [r1, #1]
   31a9c:	e1822401 	orr	r2, r2, r1, lsl #8
   31aa0:	e5832008 	str	r2, [r3, #8]
   31aa4:	e59d3220 	ldr	r3, [sp, #544]
   31aa8:	e59d2018 	ldr	r2, [sp, #24]
   31aac:	e282106c 	add	r1, r2, #108	; 0x6c
   31ab0:	e5d12000 	ldrb	r2, [r1]
   31ab4:	e5d11001 	ldrb	r1, [r1, #1]
   31ab8:	e1822401 	orr	r2, r2, r1, lsl #8
   31abc:	e583200c 	str	r2, [r3, #12]
   31ac0:	e59d3220 	ldr	r3, [sp, #544]
   31ac4:	e59d2220 	ldr	r2, [sp, #544]
   31ac8:	e593300c 	ldr	r3, [r3, #12]
   31acc:	e5922008 	ldr	r2, [r2, #8]
   31ad0:	e0030392 	mul	r3, r2, r3
   31ad4:	e59d2220 	ldr	r2, [sp, #544]
   31ad8:	e5921004 	ldr	r1, [r2, #4]
   31adc:	e0030391 	mul	r3, r1, r3
   31ae0:	e58d300c 	str	r3, [sp, #12]
   31ae4:	e59d3018 	ldr	r3, [sp, #24]
   31ae8:	e2832072 	add	r2, r3, #114	; 0x72
   31aec:	e5d23000 	ldrb	r3, [r2]
   31af0:	e5d21001 	ldrb	r1, [r2, #1]
   31af4:	e1832401 	orr	r2, r3, r1, lsl #8
   31af8:	e1a03802 	mov	r3, r2, lsl #16
   31afc:	e59d2018 	ldr	r2, [sp, #24]
   31b00:	e2821074 	add	r1, r2, #116	; 0x74
   31b04:	e5d12000 	ldrb	r2, [r1]
   31b08:	e5d11001 	ldrb	r1, [r1, #1]
   31b0c:	e1822401 	orr	r2, r2, r1, lsl #8
   31b10:	e1833002 	orr	r3, r3, r2
   31b14:	e58d3008 	str	r3, [sp, #8]
   31b18:	e59d3008 	ldr	r3, [sp, #8]
   31b1c:	e59d200c 	ldr	r2, [sp, #12]
   31b20:	e1530002 	cmp	r3, r2
   31b24:	1a000017 	bne	31b88 <ide_identify+0x2d8>
   31b28:	e59d3018 	ldr	r3, [sp, #24]
   31b2c:	e59d100c 	ldr	r1, [sp, #12]
   31b30:	e1a02001 	mov	r2, r1
   31b34:	e283c072 	add	r12, r3, #114	; 0x72
   31b38:	e5dc1000 	ldrb	r1, [r12]
   31b3c:	e5dce001 	ldrb	lr, [r12, #1]
   31b40:	e181c40e 	orr	r12, r1, lr, lsl #8
   31b44:	e1a0100c 	mov	r1, r12
   31b48:	e1a01002 	mov	r1, r2
   31b4c:	e5c31072 	strb	r1, [r3, #114]
   31b50:	e1a02441 	mov	r2, r1, asr #8
   31b54:	e5c32073 	strb	r2, [r3, #115]
   31b58:	e59d3018 	ldr	r3, [sp, #24]
   31b5c:	e59d100c 	ldr	r1, [sp, #12]
   31b60:	e1a02821 	mov	r2, r1, lsr #16
   31b64:	e283c074 	add	r12, r3, #116	; 0x74
   31b68:	e5dc1000 	ldrb	r1, [r12]
   31b6c:	e5dce001 	ldrb	lr, [r12, #1]
   31b70:	e181c40e 	orr	r12, r1, lr, lsl #8
   31b74:	e1a0100c 	mov	r1, r12
   31b78:	e1a01002 	mov	r1, r2
   31b7c:	e5c31074 	strb	r1, [r3, #116]
   31b80:	e1a02441 	mov	r2, r1, asr #8
   31b84:	e5c32075 	strb	r2, [r3, #117]
   31b88:	e59d3220 	ldr	r3, [sp, #544]
   31b8c:	e59d2220 	ldr	r2, [sp, #544]
   31b90:	e593300c 	ldr	r3, [r3, #12]
   31b94:	e5922008 	ldr	r2, [r2, #8]
   31b98:	e0030392 	mul	r3, r2, r3
   31b9c:	e59d2220 	ldr	r2, [sp, #544]
   31ba0:	e5921004 	ldr	r1, [r2, #4]
   31ba4:	e0030391 	mul	r3, r1, r3
   31ba8:	e58d300c 	str	r3, [sp, #12]
   31bac:	e59d3220 	ldr	r3, [sp, #544]
   31bb0:	e5d32015 	ldrb	r2, [r3, #21]
   31bb4:	e20210fb 	and	r1, r2, #251	; 0xfb
   31bb8:	e1a02001 	mov	r2, r1
   31bbc:	e5c32015 	strb	r2, [r3, #21]
   31bc0:	e59d3220 	ldr	r3, [sp, #544]
   31bc4:	e59d2220 	ldr	r2, [sp, #544]
   31bc8:	e5d21011 	ldrb	r1, [r2, #17]
   31bcc:	e20120bf 	and	r2, r1, #191	; 0xbf
   31bd0:	e1a01002 	mov	r1, r2
   31bd4:	e5c31011 	strb	r1, [r3, #17]
   31bd8:	e59d200c 	ldr	r2, [sp, #12]
   31bdc:	e1a035a2 	mov	r3, r2, lsr #11
   31be0:	e59d2220 	ldr	r2, [sp, #544]
   31be4:	e5d21015 	ldrb	r1, [r2, #21]
   31be8:	e2012004 	and	r2, r1, #4	; 0x4
   31bec:	e20210ff 	and	r1, r2, #255	; 0xff
   31bf0:	e3510000 	cmp	r1, #0	; 0x0
   31bf4:	0a000001 	beq	31c00 <ide_identify+0x350>
   31bf8:	e59f2054 	ldr	r2, [pc, #54]	; 31c54 <ide_identify+0x3a4>
   31bfc:	ea000000 	b	31c04 <ide_identify+0x354>
   31c00:	e59f2050 	ldr	r2, [pc, #50]	; 31c58 <ide_identify+0x3a8>
   31c04:	e59dc220 	ldr	r12, [sp, #544]
   31c08:	e59d1220 	ldr	r1, [sp, #544]
   31c0c:	e591e008 	ldr	lr, [r1, #8]
   31c10:	e58de000 	str	lr, [sp]
   31c14:	e59d1220 	ldr	r1, [sp, #544]
   31c18:	e591e004 	ldr	lr, [r1, #4]
   31c1c:	e58de004 	str	lr, [sp, #4]
   31c20:	e59f0034 	ldr	r0, [pc, #34]	; 31c5c <ide_identify+0x3ac>
   31c24:	e1a01003 	mov	r1, r3
   31c28:	e59c300c 	ldr	r3, [r12, #12]
   31c2c:	eb00065c 	bl	335a4 <printf>
   31c30:	e3a03000 	mov	r3, #0	; 0x0
   31c34:	e58d3010 	str	r3, [sp, #16]
   31c38:	ea000001 	b	31c44 <ide_identify+0x394>
   31c3c:	e3a03002 	mov	r3, #2	; 0x2
   31c40:	e58d3010 	str	r3, [sp, #16]
   31c44:	e59d3010 	ldr	r3, [sp, #16]
   31c48:	e1a00003 	mov	r0, r3
   31c4c:	ea000003 	b	31c60 <ide_identify+0x3b0>
   31c50:	000349b4 	streqh	r4, [r3], -r4
   31c54:	000349d4 	streqsb	r4, [r3], -r4
   31c58:	000349dc 	streqsb	r4, [r3], -r12
   31c5c:	000349bc 	streqh	r4, [r3], -r12
   31c60:	e28ddf89 	add	sp, sp, #548	; 0x224
   31c64:	e8bd8000 	ldmia	sp!, {pc}

00031c68 <ide_drive_probe>:
   31c68:	e52de004 	str	lr, [sp, -#4]!
   31c6c:	e24dd008 	sub	sp, sp, #8	; 0x8
   31c70:	e58d0004 	str	r0, [sp, #4]
   31c74:	e59d0004 	ldr	r0, [sp, #4]
   31c78:	eb0003b1 	bl	32b44 <ide_select_drive>
   31c7c:	e1a03000 	mov	r3, r0
   31c80:	e3530000 	cmp	r3, #0	; 0x0
   31c84:	1a000001 	bne	31c90 <ide_drive_probe+0x28>
   31c88:	e3a00003 	mov	r0, #3	; 0x3
   31c8c:	ea00001f 	b	31d10 <ide_drive_probe+0xa8>
   31c90:	e59d0004 	ldr	r0, [sp, #4]
   31c94:	e3a01040 	mov	r1, #64	; 0x40
   31c98:	e3a02080 	mov	r2, #128	; 0x80
   31c9c:	eb000392 	bl	32aec <ide_status_ok>
   31ca0:	e1a03000 	mov	r3, r0
   31ca4:	e3530000 	cmp	r3, #0	; 0x0
   31ca8:	0a000013 	beq	31cfc <ide_drive_probe+0x94>
   31cac:	e59d0004 	ldr	r0, [sp, #4]
   31cb0:	e3a010ec 	mov	r1, #236	; 0xec
   31cb4:	ebfffefd 	bl	318b0 <ide_identify>
   31cb8:	e1a03000 	mov	r3, r0
   31cbc:	e58d3000 	str	r3, [sp]
   31cc0:	e59d3000 	ldr	r3, [sp]
   31cc4:	e3530000 	cmp	r3, #0	; 0x0
   31cc8:	0a000004 	beq	31ce0 <ide_drive_probe+0x78>
   31ccc:	e59d0004 	ldr	r0, [sp, #4]
   31cd0:	e3a010ec 	mov	r1, #236	; 0xec
   31cd4:	ebfffef5 	bl	318b0 <ide_identify>
   31cd8:	e1a03000 	mov	r3, r0
   31cdc:	e58d3000 	str	r3, [sp]
   31ce0:	e59d3004 	ldr	r3, [sp, #4]
   31ce4:	e5932000 	ldr	r2, [r3]
   31ce8:	e592101c 	ldr	r1, [r2, #28]
   31cec:	e281331f 	add	r3, r1, #2080374784	; 0x7c000000
   31cf0:	e1a00003 	mov	r0, r3
   31cf4:	eb000327 	bl	32998 <read_byte>
   31cf8:	ea000001 	b	31d04 <ide_drive_probe+0x9c>
   31cfc:	e3a03003 	mov	r3, #3	; 0x3
   31d00:	e58d3000 	str	r3, [sp]
   31d04:	e59d3000 	ldr	r3, [sp]
   31d08:	e1a00003 	mov	r0, r3
   31d0c:	eaffffff 	b	31d10 <ide_drive_probe+0xa8>
   31d10:	e28dd008 	add	sp, sp, #8	; 0x8
   31d14:	e8bd8000 	ldmia	sp!, {pc}

00031d18 <ide_read_sectors>:
   31d18:	e52de004 	str	lr, [sp, -#4]!
   31d1c:	e24dd02c 	sub	sp, sp, #44	; 0x2c
   31d20:	e58d0028 	str	r0, [sp, #40]
   31d24:	e58d1024 	str	r1, [sp, #36]
   31d28:	e58d2020 	str	r2, [sp, #32]
   31d2c:	e58d301c 	str	r3, [sp, #28]
   31d30:	e59d3020 	ldr	r3, [sp, #32]
   31d34:	e58d3014 	str	r3, [sp, #20]
   31d38:	e3e03000 	mvn	r3, #0	; 0x0
   31d3c:	e58d3008 	str	r3, [sp, #8]
   31d40:	e59d201c 	ldr	r2, [sp, #28]
   31d44:	e1a03b82 	mov	r3, r2, lsl #23
   31d48:	e1a03ba3 	mov	r3, r3, lsr #23
   31d4c:	e3530000 	cmp	r3, #0	; 0x0
   31d50:	0a000001 	beq	31d5c <ide_read_sectors+0x44>
   31d54:	e3e00000 	mvn	r0, #0	; 0x0
   31d58:	ea0000ca 	b	32088 <ide_read_sectors+0x370>
   31d5c:	e59d301c 	ldr	r3, [sp, #28]
   31d60:	e1a024c3 	mov	r2, r3, asr #9
   31d64:	e58d201c 	str	r2, [sp, #28]
   31d68:	e59d0028 	ldr	r0, [sp, #40]
   31d6c:	eb000374 	bl	32b44 <ide_select_drive>
   31d70:	e1a03000 	mov	r3, r0
   31d74:	e3530000 	cmp	r3, #0	; 0x0
   31d78:	1a000001 	bne	31d84 <ide_read_sectors+0x6c>
   31d7c:	e3e00000 	mvn	r0, #0	; 0x0
   31d80:	ea0000c0 	b	32088 <ide_read_sectors+0x370>
   31d84:	e59d0028 	ldr	r0, [sp, #40]
   31d88:	e3a01040 	mov	r1, #64	; 0x40
   31d8c:	e3a02088 	mov	r2, #136	; 0x88
   31d90:	eb000355 	bl	32aec <ide_status_ok>
   31d94:	e1a03000 	mov	r3, r0
   31d98:	e3530000 	cmp	r3, #0	; 0x0
   31d9c:	1a000006 	bne	31dbc <ide_read_sectors+0xa4>
   31da0:	e59d3028 	ldr	r3, [sp, #40]
   31da4:	e5d32014 	ldrb	r2, [r3, #20]
   31da8:	e59f02d0 	ldr	r0, [pc, #2d0]	; 32080 <ide_read_sectors+0x368>
   31dac:	e1a01002 	mov	r1, r2
   31db0:	eb0005fb 	bl	335a4 <printf>
   31db4:	e3e00000 	mvn	r0, #0	; 0x0
   31db8:	ea0000b2 	b	32088 <ide_read_sectors+0x370>
   31dbc:	e59d3028 	ldr	r3, [sp, #40]
   31dc0:	e5932000 	ldr	r2, [r3]
   31dc4:	e5921020 	ldr	r1, [r2, #32]
   31dc8:	e281331f 	add	r3, r1, #2080374784	; 0x7c000000
   31dcc:	e3a0000a 	mov	r0, #10	; 0xa
   31dd0:	e1a01003 	mov	r1, r3
   31dd4:	eb0002f5 	bl	329b0 <write_byte>
   31dd8:	e5dd301c 	ldrb	r3, [sp, #28]
   31ddc:	e59d2028 	ldr	r2, [sp, #40]
   31de0:	e5921000 	ldr	r1, [r2]
   31de4:	e591c008 	ldr	r12, [r1, #8]
   31de8:	e28c231f 	add	r2, r12, #2080374784	; 0x7c000000
   31dec:	e1a00003 	mov	r0, r3
   31df0:	e1a01002 	mov	r1, r2
   31df4:	eb0002ed 	bl	329b0 <write_byte>
   31df8:	e59d3028 	ldr	r3, [sp, #40]
   31dfc:	e5d32015 	ldrb	r2, [r3, #21]
   31e00:	e2023004 	and	r3, r2, #4	; 0x4
   31e04:	e20320ff 	and	r2, r3, #255	; 0xff
   31e08:	e3520000 	cmp	r2, #0	; 0x0
   31e0c:	0a000010 	beq	31e54 <ide_read_sectors+0x13c>
   31e10:	e5dd3024 	ldrb	r3, [sp, #36]
   31e14:	e5cd301b 	strb	r3, [sp, #27]
   31e18:	e59d2024 	ldr	r2, [sp, #36]
   31e1c:	e1a03422 	mov	r3, r2, lsr #8
   31e20:	e1a02003 	mov	r2, r3
   31e24:	e5cd201a 	strb	r2, [sp, #26]
   31e28:	e59d2024 	ldr	r2, [sp, #36]
   31e2c:	e1a03822 	mov	r3, r2, lsr #16
   31e30:	e1a02003 	mov	r2, r3
   31e34:	e5cd2019 	strb	r2, [sp, #25]
   31e38:	e59d2024 	ldr	r2, [sp, #36]
   31e3c:	e1a03c22 	mov	r3, r2, lsr #24
   31e40:	e1a02003 	mov	r2, r3
   31e44:	e202300f 	and	r3, r2, #15	; 0xf
   31e48:	e1a02003 	mov	r2, r3
   31e4c:	e5cd2018 	strb	r2, [sp, #24]
   31e50:	ea000023 	b	31ee4 <ide_read_sectors+0x1cc>
   31e54:	e59d3028 	ldr	r3, [sp, #40]
   31e58:	e59d2024 	ldr	r2, [sp, #36]
   31e5c:	e1a00002 	mov	r0, r2
   31e60:	e5931004 	ldr	r1, [r3, #4]
   31e64:	eb000a1b 	bl	346d8 <__umodsi3>
   31e68:	e1a03000 	mov	r3, r0
   31e6c:	e1a02003 	mov	r2, r3
   31e70:	e2823001 	add	r3, r2, #1	; 0x1
   31e74:	e1a02003 	mov	r2, r3
   31e78:	e5cd201b 	strb	r2, [sp, #27]
   31e7c:	e59d3028 	ldr	r3, [sp, #40]
   31e80:	e59d0024 	ldr	r0, [sp, #36]
   31e84:	e5931004 	ldr	r1, [r3, #4]
   31e88:	eb0009ec 	bl	34640 <__udivsi3>
   31e8c:	e1a03000 	mov	r3, r0
   31e90:	e58d3000 	str	r3, [sp]
   31e94:	e59d3028 	ldr	r3, [sp, #40]
   31e98:	e59d2000 	ldr	r2, [sp]
   31e9c:	e1a00002 	mov	r0, r2
   31ea0:	e5931008 	ldr	r1, [r3, #8]
   31ea4:	eb000a0b 	bl	346d8 <__umodsi3>
   31ea8:	e1a03000 	mov	r3, r0
   31eac:	e1a02003 	mov	r2, r3
   31eb0:	e5cd2018 	strb	r2, [sp, #24]
   31eb4:	e59d3028 	ldr	r3, [sp, #40]
   31eb8:	e59d0000 	ldr	r0, [sp]
   31ebc:	e5931008 	ldr	r1, [r3, #8]
   31ec0:	eb0009de 	bl	34640 <__udivsi3>
   31ec4:	e1a03000 	mov	r3, r0
   31ec8:	e58d3004 	str	r3, [sp, #4]
   31ecc:	e5dd3004 	ldrb	r3, [sp, #4]
   31ed0:	e5cd301a 	strb	r3, [sp, #26]
   31ed4:	e59d2004 	ldr	r2, [sp, #4]
   31ed8:	e1a03422 	mov	r3, r2, lsr #8
   31edc:	e1a02003 	mov	r2, r3
   31ee0:	e5cd2019 	strb	r2, [sp, #25]
   31ee4:	e5dd301b 	ldrb	r3, [sp, #27]
   31ee8:	e59d2028 	ldr	r2, [sp, #40]
   31eec:	e5921000 	ldr	r1, [r2]
   31ef0:	e591c00c 	ldr	r12, [r1, #12]
   31ef4:	e28c231f 	add	r2, r12, #2080374784	; 0x7c000000
   31ef8:	e1a00003 	mov	r0, r3
   31efc:	e1a01002 	mov	r1, r2
   31f00:	eb0002aa 	bl	329b0 <write_byte>
   31f04:	e5dd301a 	ldrb	r3, [sp, #26]
   31f08:	e59d2028 	ldr	r2, [sp, #40]
   31f0c:	e5921000 	ldr	r1, [r2]
   31f10:	e591c010 	ldr	r12, [r1, #16]
   31f14:	e28c231f 	add	r2, r12, #2080374784	; 0x7c000000
   31f18:	e1a00003 	mov	r0, r3
   31f1c:	e1a01002 	mov	r1, r2
   31f20:	eb0002a2 	bl	329b0 <write_byte>
   31f24:	e5dd3019 	ldrb	r3, [sp, #25]
   31f28:	e59d2028 	ldr	r2, [sp, #40]
   31f2c:	e5921000 	ldr	r1, [r2]
   31f30:	e591c014 	ldr	r12, [r1, #20]
   31f34:	e28c231f 	add	r2, r12, #2080374784	; 0x7c000000
   31f38:	e1a00003 	mov	r0, r3
   31f3c:	e1a01002 	mov	r1, r2
   31f40:	eb00029a 	bl	329b0 <write_byte>
   31f44:	e59d3028 	ldr	r3, [sp, #40]
   31f48:	e5dd2018 	ldrb	r2, [sp, #24]
   31f4c:	e5d33011 	ldrb	r3, [r3, #17]
   31f50:	e1822003 	orr	r2, r2, r3
   31f54:	e20230ff 	and	r3, r2, #255	; 0xff
   31f58:	e59d2028 	ldr	r2, [sp, #40]
   31f5c:	e5921000 	ldr	r1, [r2]
   31f60:	e591c018 	ldr	r12, [r1, #24]
   31f64:	e28c231f 	add	r2, r12, #2080374784	; 0x7c000000
   31f68:	e1a00003 	mov	r0, r3
   31f6c:	e1a01002 	mov	r1, r2
   31f70:	eb00028e 	bl	329b0 <write_byte>
   31f74:	e59d3028 	ldr	r3, [sp, #40]
   31f78:	e5932000 	ldr	r2, [r3]
   31f7c:	e592101c 	ldr	r1, [r2, #28]
   31f80:	e281331f 	add	r3, r1, #2080374784	; 0x7c000000
   31f84:	e3a00020 	mov	r0, #32	; 0x20
   31f88:	e1a01003 	mov	r1, r3
   31f8c:	eb000287 	bl	329b0 <write_byte>
   31f90:	e59f30ec 	ldr	r3, [pc, #ec]	; 32084 <ide_read_sectors+0x36c>
   31f94:	e5932000 	ldr	r2, [r3]
   31f98:	e2823e7d 	add	r3, r2, #2000	; 0x7d0
   31f9c:	e58d3010 	str	r3, [sp, #16]
   31fa0:	e59d3028 	ldr	r3, [sp, #40]
   31fa4:	e5932000 	ldr	r2, [r3]
   31fa8:	e592101c 	ldr	r1, [r2, #28]
   31fac:	e281331f 	add	r3, r1, #2080374784	; 0x7c000000
   31fb0:	e1a00003 	mov	r0, r3
   31fb4:	eb000277 	bl	32998 <read_byte>
   31fb8:	e1a03000 	mov	r3, r0
   31fbc:	e20320ff 	and	r2, r3, #255	; 0xff
   31fc0:	e58d200c 	str	r2, [sp, #12]
   31fc4:	e59d200c 	ldr	r2, [sp, #12]
   31fc8:	e2023080 	and	r3, r2, #128	; 0x80
   31fcc:	e3530000 	cmp	r3, #0	; 0x0
   31fd0:	0a000000 	beq	31fd8 <ide_read_sectors+0x2c0>
   31fd4:	ea000016 	b	32034 <ide_read_sectors+0x31c>
   31fd8:	e59d200c 	ldr	r2, [sp, #12]
   31fdc:	e2023001 	and	r3, r2, #1	; 0x1
   31fe0:	e3530000 	cmp	r3, #0	; 0x0
   31fe4:	0a000000 	beq	31fec <ide_read_sectors+0x2d4>
   31fe8:	ea00001c 	b	32060 <ide_read_sectors+0x348>
   31fec:	e59d200c 	ldr	r2, [sp, #12]
   31ff0:	e2023008 	and	r3, r2, #8	; 0x8
   31ff4:	e3530000 	cmp	r3, #0	; 0x0
   31ff8:	0a00000d 	beq	32034 <ide_read_sectors+0x31c>
   31ffc:	e59f3080 	ldr	r3, [pc, #80]	; 32084 <ide_read_sectors+0x36c>
   32000:	e5932000 	ldr	r2, [r3]
   32004:	e2823064 	add	r3, r2, #100	; 0x64
   32008:	e58d3010 	str	r3, [sp, #16]
   3200c:	e59d0028 	ldr	r0, [sp, #40]
   32010:	e59d1014 	ldr	r1, [sp, #20]
   32014:	e3a02c02 	mov	r2, #512	; 0x200
   32018:	ebfffd02 	bl	31428 <ide_input_data>
   3201c:	e59d3014 	ldr	r3, [sp, #20]
   32020:	e2832c02 	add	r2, r3, #512	; 0x200
   32024:	e58d2014 	str	r2, [sp, #20]
   32028:	e59d301c 	ldr	r3, [sp, #28]
   3202c:	e2432001 	sub	r2, r3, #1	; 0x1
   32030:	e58d201c 	str	r2, [sp, #28]
   32034:	e59f3048 	ldr	r3, [pc, #48]	; 32084 <ide_read_sectors+0x36c>
   32038:	e59d2010 	ldr	r2, [sp, #16]
   3203c:	e5933000 	ldr	r3, [r3]
   32040:	e1520003 	cmp	r2, r3
   32044:	9a000003 	bls	32058 <ide_read_sectors+0x340>
   32048:	e59d301c 	ldr	r3, [sp, #28]
   3204c:	e3530000 	cmp	r3, #0	; 0x0
   32050:	1a000001 	bne	3205c <ide_read_sectors+0x344>
   32054:	eaffffff 	b	32058 <ide_read_sectors+0x340>
   32058:	ea000000 	b	32060 <ide_read_sectors+0x348>
   3205c:	eaffffcf 	b	31fa0 <ide_read_sectors+0x288>
   32060:	e59d301c 	ldr	r3, [sp, #28]
   32064:	e3530000 	cmp	r3, #0	; 0x0
   32068:	1a000001 	bne	32074 <ide_read_sectors+0x35c>
   3206c:	e3a03000 	mov	r3, #0	; 0x0
   32070:	e58d3008 	str	r3, [sp, #8]
   32074:	e59d3008 	ldr	r3, [sp, #8]
   32078:	e1a00003 	mov	r0, r3
   3207c:	ea000001 	b	32088 <ide_read_sectors+0x370>
   32080:	000349e0 	andeq	r4, r3, r0, ror #19
   32084:	00035a10 	andeq	r5, r3, r0, lsl r10
   32088:	e28dd02c 	add	sp, sp, #44	; 0x2c
   3208c:	e8bd8000 	ldmia	sp!, {pc}

00032090 <ide_probe>:
   32090:	e24dd008 	sub	sp, sp, #8	; 0x8
   32094:	e3a03e1f 	mov	r3, #496	; 0x1f0
   32098:	e58d3004 	str	r3, [sp, #4]
   3209c:	e3a03000 	mov	r3, #0	; 0x0
   320a0:	e58d3000 	str	r3, [sp]
   320a4:	e59d3000 	ldr	r3, [sp]
   320a8:	e3530007 	cmp	r3, #7	; 0x7
   320ac:	da000000 	ble	320b4 <ide_probe+0x24>
   320b0:	ea00000b 	b	320e4 <ide_probe+0x54>
   320b4:	e59f3040 	ldr	r3, [pc, #40]	; 320fc <ide_probe+0x6c>
   320b8:	e59d2000 	ldr	r2, [sp]
   320bc:	e1a01002 	mov	r1, r2
   320c0:	e1a02101 	mov	r2, r1, lsl #2
   320c4:	e59d1004 	ldr	r1, [sp, #4]
   320c8:	e59dc000 	ldr	r12, [sp]
   320cc:	e081100c 	add	r1, r1, r12
   320d0:	e7831002 	str	r1, [r3, r2]
   320d4:	e59d3000 	ldr	r3, [sp]
   320d8:	e2832001 	add	r2, r3, #1	; 0x1
   320dc:	e58d2000 	str	r2, [sp]
   320e0:	eaffffef 	b	320a4 <ide_probe+0x14>
   320e4:	e59f3010 	ldr	r3, [pc, #10]	; 320fc <ide_probe+0x6c>
   320e8:	e3a02ffd 	mov	r2, #1012	; 0x3f4
   320ec:	e2822002 	add	r2, r2, #2	; 0x2
   320f0:	e5832020 	str	r2, [r3, #32]
   320f4:	e3a00000 	mov	r0, #0	; 0x0
   320f8:	ea000000 	b	32100 <ide_probe+0x70>
   320fc:	00035590 	muleq	r3, r0, r5
   32100:	e28dd008 	add	sp, sp, #8	; 0x8
   32104:	e1a0f00e 	mov	pc, lr

00032108 <ide_start>:
   32108:	e52de004 	str	lr, [sp, -#4]!
   3210c:	e24dd008 	sub	sp, sp, #8	; 0x8
   32110:	e3a03000 	mov	r3, #0	; 0x0
   32114:	e58d3000 	str	r3, [sp]
   32118:	e3a03000 	mov	r3, #0	; 0x0
   3211c:	e58d3004 	str	r3, [sp, #4]
   32120:	e59d3004 	ldr	r3, [sp, #4]
   32124:	e3530001 	cmp	r3, #1	; 0x1
   32128:	da000000 	ble	32130 <ide_start+0x28>
   3212c:	ea000079 	b	32318 <ide_start+0x210>
   32130:	e59f32a8 	ldr	r3, [pc, #2a8]	; 323e0 <ide_start+0x2d8>
   32134:	e59d2004 	ldr	r2, [sp, #4]
   32138:	e1a01002 	mov	r1, r2
   3213c:	e1a01081 	mov	r1, r1, lsl #1
   32140:	e0811002 	add	r1, r1, r2
   32144:	e1a02181 	mov	r2, r1, lsl #3
   32148:	e59d1004 	ldr	r1, [sp, #4]
   3214c:	e1a0c0c1 	mov	r12, r1, asr #1
   32150:	e1a0100c 	mov	r1, r12
   32154:	e1a01101 	mov	r1, r1, lsl #2
   32158:	e081100c 	add	r1, r1, r12
   3215c:	e1a01081 	mov	r1, r1, lsl #1
   32160:	e081100c 	add	r1, r1, r12
   32164:	e1a0c101 	mov	r12, r1, lsl #2
   32168:	e59f1274 	ldr	r1, [pc, #274]	; 323e4 <ide_start+0x2dc>
   3216c:	e081c00c 	add	r12, r1, r12
   32170:	e783c002 	str	r12, [r3, r2]
   32174:	e59f3264 	ldr	r3, [pc, #264]	; 323e0 <ide_start+0x2d8>
   32178:	e59d1004 	ldr	r1, [sp, #4]
   3217c:	e1a02001 	mov	r2, r1
   32180:	e1a02082 	mov	r2, r2, lsl #1
   32184:	e0822001 	add	r2, r2, r1
   32188:	e1a01182 	mov	r1, r2, lsl #3
   3218c:	e3a02010 	mov	r2, #16	; 0x10
   32190:	e0831001 	add	r1, r3, r1
   32194:	e0813002 	add	r3, r1, r2
   32198:	e59d1004 	ldr	r1, [sp, #4]
   3219c:	e1a020c1 	mov	r2, r1, asr #1
   321a0:	e1a01002 	mov	r1, r2
   321a4:	e5c31000 	strb	r1, [r3]
   321a8:	e59f3230 	ldr	r3, [pc, #230]	; 323e0 <ide_start+0x2d8>
   321ac:	e59d2004 	ldr	r2, [sp, #4]
   321b0:	e1a01002 	mov	r1, r2
   321b4:	e1a01081 	mov	r1, r1, lsl #1
   321b8:	e0811002 	add	r1, r1, r2
   321bc:	e1a02181 	mov	r2, r1, lsl #3
   321c0:	e5ddc004 	ldrb	r12, [sp, #4]
   321c4:	e20c1001 	and	r1, r12, #1	; 0x1
   321c8:	e3a0c015 	mov	r12, #21	; 0x15
   321cc:	e0832002 	add	r2, r3, r2
   321d0:	e082300c 	add	r3, r2, r12
   321d4:	e5d32000 	ldrb	r2, [r3]
   321d8:	e201c001 	and	r12, r1, #1	; 0x1
   321dc:	e3c2e020 	bic	lr, r2, #32	; 0x20
   321e0:	e18e128c 	orr	r1, lr, r12, lsl #5
   321e4:	e1a02001 	mov	r2, r1
   321e8:	e5c32000 	strb	r2, [r3]
   321ec:	e59f31ec 	ldr	r3, [pc, #1ec]	; 323e0 <ide_start+0x2d8>
   321f0:	e59d1004 	ldr	r1, [sp, #4]
   321f4:	e1a02001 	mov	r2, r1
   321f8:	e1a02082 	mov	r2, r2, lsl #1
   321fc:	e0822001 	add	r2, r2, r1
   32200:	e1a01182 	mov	r1, r2, lsl #3
   32204:	e3a02014 	mov	r2, #20	; 0x14
   32208:	e0831001 	add	r1, r3, r1
   3220c:	e0813002 	add	r3, r1, r2
   32210:	e5dd2004 	ldrb	r2, [sp, #4]
   32214:	e2821061 	add	r1, r2, #97	; 0x61
   32218:	e1a02001 	mov	r2, r1
   3221c:	e5c32000 	strb	r2, [r3]
   32220:	e59f31b8 	ldr	r3, [pc, #1b8]	; 323e0 <ide_start+0x2d8>
   32224:	e59d1004 	ldr	r1, [sp, #4]
   32228:	e1a02001 	mov	r2, r1
   3222c:	e1a02082 	mov	r2, r2, lsl #1
   32230:	e0822001 	add	r2, r2, r1
   32234:	e1a01182 	mov	r1, r2, lsl #3
   32238:	e3a02011 	mov	r2, #17	; 0x11
   3223c:	e0831001 	add	r1, r3, r1
   32240:	e0813002 	add	r3, r1, r2
   32244:	e5dd2004 	ldrb	r2, [sp, #4]
   32248:	e2021001 	and	r1, r2, #1	; 0x1
   3224c:	e1a02001 	mov	r2, r1
   32250:	e1a01202 	mov	r1, r2, lsl #4
   32254:	e1a0c001 	mov	r12, r1
   32258:	e1e0200c 	mvn	r2, r12
   3225c:	e202205f 	and	r2, r2, #95	; 0x5f
   32260:	e1e02002 	mvn	r2, r2
   32264:	e1a01002 	mov	r1, r2
   32268:	e5c31000 	strb	r1, [r3]
   3226c:	e59f316c 	ldr	r3, [pc, #16c]	; 323e0 <ide_start+0x2d8>
   32270:	e59d1004 	ldr	r1, [sp, #4]
   32274:	e1a02001 	mov	r2, r1
   32278:	e1a02082 	mov	r2, r2, lsl #1
   3227c:	e0822001 	add	r2, r2, r1
   32280:	e1a01182 	mov	r1, r2, lsl #3
   32284:	e3a02015 	mov	r2, #21	; 0x15
   32288:	e0831001 	add	r1, r3, r1
   3228c:	e0813002 	add	r3, r1, r2
   32290:	e5d32000 	ldrb	r2, [r3]
   32294:	e20210fb 	and	r1, r2, #251	; 0xfb
   32298:	e1a02001 	mov	r2, r1
   3229c:	e5c32000 	strb	r2, [r3]
   322a0:	e59f3138 	ldr	r3, [pc, #138]	; 323e0 <ide_start+0x2d8>
   322a4:	e59d1004 	ldr	r1, [sp, #4]
   322a8:	e1a02001 	mov	r2, r1
   322ac:	e1a02082 	mov	r2, r2, lsl #1
   322b0:	e0822001 	add	r2, r2, r1
   322b4:	e1a01182 	mov	r1, r2, lsl #3
   322b8:	e3a02015 	mov	r2, #21	; 0x15
   322bc:	e0831001 	add	r1, r3, r1
   322c0:	e0813002 	add	r3, r1, r2
   322c4:	e5d32000 	ldrb	r2, [r3]
   322c8:	e20210f7 	and	r1, r2, #247	; 0xf7
   322cc:	e1a02001 	mov	r2, r1
   322d0:	e5c32000 	strb	r2, [r3]
   322d4:	e59f3104 	ldr	r3, [pc, #104]	; 323e0 <ide_start+0x2d8>
   322d8:	e59d1004 	ldr	r1, [sp, #4]
   322dc:	e1a02001 	mov	r2, r1
   322e0:	e1a02082 	mov	r2, r2, lsl #1
   322e4:	e0822001 	add	r2, r2, r1
   322e8:	e1a01182 	mov	r1, r2, lsl #3
   322ec:	e3a02015 	mov	r2, #21	; 0x15
   322f0:	e0831001 	add	r1, r3, r1
   322f4:	e0813002 	add	r3, r1, r2
   322f8:	e5d32000 	ldrb	r2, [r3]
   322fc:	e20210ef 	and	r1, r2, #239	; 0xef
   32300:	e1a02001 	mov	r2, r1
   32304:	e5c32000 	strb	r2, [r3]
   32308:	e59d3004 	ldr	r3, [sp, #4]
   3230c:	e2832001 	add	r2, r3, #1	; 0x1
   32310:	e58d2004 	str	r2, [sp, #4]
   32314:	eaffff81 	b	32120 <ide_start+0x18>
   32318:	e1a00000 	nop			(mov r0,r0)
   3231c:	e3a03000 	mov	r3, #0	; 0x0
   32320:	e58d3004 	str	r3, [sp, #4]
   32324:	e59d3004 	ldr	r3, [sp, #4]
   32328:	e3530000 	cmp	r3, #0	; 0x0
   3232c:	da000000 	ble	32334 <ide_start+0x22c>
   32330:	ea000022 	b	323c0 <ide_start+0x2b8>
   32334:	e59f30a4 	ldr	r3, [pc, #a4]	; 323e0 <ide_start+0x2d8>
   32338:	e59d1004 	ldr	r1, [sp, #4]
   3233c:	e1a02001 	mov	r2, r1
   32340:	e1a02082 	mov	r2, r2, lsl #1
   32344:	e0822001 	add	r2, r2, r1
   32348:	e1a01182 	mov	r1, r2, lsl #3
   3234c:	e3a02014 	mov	r2, #20	; 0x14
   32350:	e0833001 	add	r3, r3, r1
   32354:	e0832002 	add	r2, r3, r2
   32358:	e5d23000 	ldrb	r3, [r2]
   3235c:	e59f0084 	ldr	r0, [pc, #84]	; 323e8 <ide_start+0x2e0>
   32360:	e1a01003 	mov	r1, r3
   32364:	eb00048e 	bl	335a4 <printf>
   32368:	e59d2004 	ldr	r2, [sp, #4]
   3236c:	e1a03002 	mov	r3, r2
   32370:	e1a03083 	mov	r3, r3, lsl #1
   32374:	e0833002 	add	r3, r3, r2
   32378:	e1a02183 	mov	r2, r3, lsl #3
   3237c:	e59f105c 	ldr	r1, [pc, #5c]	; 323e0 <ide_start+0x2d8>
   32380:	e0823001 	add	r3, r2, r1
   32384:	e1a00003 	mov	r0, r3
   32388:	ebfffe36 	bl	31c68 <ide_drive_probe>
   3238c:	e1a03000 	mov	r3, r0
   32390:	e3530000 	cmp	r3, #0	; 0x0
   32394:	0a000002 	beq	323a4 <ide_start+0x29c>
   32398:	e59f004c 	ldr	r0, [pc, #4c]	; 323ec <ide_start+0x2e4>
   3239c:	eb000480 	bl	335a4 <printf>
   323a0:	ea000002 	b	323b0 <ide_start+0x2a8>
   323a4:	e59d3000 	ldr	r3, [sp]
   323a8:	e2832001 	add	r2, r3, #1	; 0x1
   323ac:	e58d2000 	str	r2, [sp]
   323b0:	e59d3004 	ldr	r3, [sp, #4]
   323b4:	e2832001 	add	r2, r3, #1	; 0x1
   323b8:	e58d2004 	str	r2, [sp, #4]
   323bc:	eaffffd8 	b	32324 <ide_start+0x21c>
   323c0:	e59d3000 	ldr	r3, [sp]
   323c4:	e3530000 	cmp	r3, #0	; 0x0
   323c8:	1a000001 	bne	323d4 <ide_start+0x2cc>
   323cc:	e3e03000 	mvn	r3, #0	; 0x0
   323d0:	ea000000 	b	323d8 <ide_start+0x2d0>
   323d4:	e3a03000 	mov	r3, #0	; 0x0
   323d8:	e1a00003 	mov	r0, r3
   323dc:	ea000003 	b	323f0 <ide_start+0x2e8>
   323e0:	000355bc 	streqh	r5, [r3], -r12
   323e4:	00035590 	muleq	r3, r0, r5
   323e8:	00034a04 	andeq	r4, r3, r4, lsl #20
   323ec:	00034a0c 	andeq	r4, r3, r12, lsl #20
   323f0:	e28dd008 	add	sp, sp, #8	; 0x8
   323f4:	e8bd8000 	ldmia	sp!, {pc}

000323f8 <dump_sector>:
   323f8:	e52de004 	str	lr, [sp, -#4]!
   323fc:	e24dd00c 	sub	sp, sp, #12	; 0xc
   32400:	e58d0008 	str	r0, [sp, #8]
   32404:	e3a03000 	mov	r3, #0	; 0x0
   32408:	e58d3004 	str	r3, [sp, #4]
   3240c:	e59d3004 	ldr	r3, [sp, #4]
   32410:	e3a02f7f 	mov	r2, #508	; 0x1fc
   32414:	e2822003 	add	r2, r2, #3	; 0x3
   32418:	e1530002 	cmp	r3, r2
   3241c:	da000000 	ble	32424 <dump_sector+0x2c>
   32420:	ea000045 	b	3253c <dump_sector+0x144>
   32424:	e59f00fc 	ldr	r0, [pc, #fc]	; 32528 <dump_sector+0x130>
   32428:	e59d1004 	ldr	r1, [sp, #4]
   3242c:	eb00047d 	bl	33628 <debug_printf>
   32430:	e59d3004 	ldr	r3, [sp, #4]
   32434:	e58d3000 	str	r3, [sp]
   32438:	e59d2004 	ldr	r2, [sp, #4]
   3243c:	e2823010 	add	r3, r2, #16	; 0x10
   32440:	e59d2000 	ldr	r2, [sp]
   32444:	e1520003 	cmp	r2, r3
   32448:	ba000000 	blt	32450 <dump_sector+0x58>
   3244c:	ea00000a 	b	3247c <dump_sector+0x84>
   32450:	e59d3008 	ldr	r3, [sp, #8]
   32454:	e59d2000 	ldr	r2, [sp]
   32458:	e0833002 	add	r3, r3, r2
   3245c:	e5d32000 	ldrb	r2, [r3]
   32460:	e59f00c4 	ldr	r0, [pc, #c4]	; 3252c <dump_sector+0x134>
   32464:	e1a01002 	mov	r1, r2
   32468:	eb00046e 	bl	33628 <debug_printf>
   3246c:	e59d3000 	ldr	r3, [sp]
   32470:	e2832001 	add	r2, r3, #1	; 0x1
   32474:	e58d2000 	str	r2, [sp]
   32478:	eaffffee 	b	32438 <dump_sector+0x40>
   3247c:	e59f00ac 	ldr	r0, [pc, #ac]	; 32530 <dump_sector+0x138>
   32480:	eb000468 	bl	33628 <debug_printf>
   32484:	e59d3004 	ldr	r3, [sp, #4]
   32488:	e58d3000 	str	r3, [sp]
   3248c:	e59d2004 	ldr	r2, [sp, #4]
   32490:	e2823010 	add	r3, r2, #16	; 0x10
   32494:	e59d2000 	ldr	r2, [sp]
   32498:	e1520003 	cmp	r2, r3
   3249c:	ba000000 	blt	324a4 <dump_sector+0xac>
   324a0:	ea00001a 	b	32510 <dump_sector+0x118>
   324a4:	e59d3008 	ldr	r3, [sp, #8]
   324a8:	e59d2000 	ldr	r2, [sp]
   324ac:	e0833002 	add	r3, r3, r2
   324b0:	e5d32000 	ldrb	r2, [r3]
   324b4:	e352001f 	cmp	r2, #31	; 0x1f
   324b8:	9a00000c 	bls	324f0 <dump_sector+0xf8>
   324bc:	e59d3008 	ldr	r3, [sp, #8]
   324c0:	e59d2000 	ldr	r2, [sp]
   324c4:	e0833002 	add	r3, r3, r2
   324c8:	e5d32000 	ldrb	r2, [r3]
   324cc:	e1a01c02 	mov	r1, r2, lsl #24
   324d0:	e1a03c41 	mov	r3, r1, asr #24
   324d4:	e3530000 	cmp	r3, #0	; 0x0
   324d8:	ba000004 	blt	324f0 <dump_sector+0xf8>
   324dc:	e59d3008 	ldr	r3, [sp, #8]
   324e0:	e59d1000 	ldr	r1, [sp]
   324e4:	e0832001 	add	r2, r3, r1
   324e8:	e5d23000 	ldrb	r3, [r2]
   324ec:	ea000000 	b	324f4 <dump_sector+0xfc>
   324f0:	e3a0302e 	mov	r3, #46	; 0x2e
   324f4:	e59f0038 	ldr	r0, [pc, #38]	; 32534 <dump_sector+0x13c>
   324f8:	e1a01003 	mov	r1, r3
   324fc:	eb000449 	bl	33628 <debug_printf>
   32500:	e59d3000 	ldr	r3, [sp]
   32504:	e2832001 	add	r2, r3, #1	; 0x1
   32508:	e58d2000 	str	r2, [sp]
   3250c:	eaffffde 	b	3248c <dump_sector+0x94>
   32510:	e59f0020 	ldr	r0, [pc, #20]	; 32538 <dump_sector+0x140>
   32514:	eb000443 	bl	33628 <debug_printf>
   32518:	e59d3004 	ldr	r3, [sp, #4]
   3251c:	e2832010 	add	r2, r3, #16	; 0x10
   32520:	e58d2004 	str	r2, [sp, #4]
   32524:	eaffffb8 	b	3240c <dump_sector+0x14>
   32528:	00034a1c 	andeq	r4, r3, r12, lsl r10
   3252c:	00034a24 	andeq	r4, r3, r4, lsr #20
   32530:	00034a2c 	andeq	r4, r3, r12, lsr #20
   32534:	00034a30 	andeq	r4, r3, r0, lsr r10
   32538:	00034a34 	andeq	r4, r3, r4, lsr r10
   3253c:	e28dd00c 	add	sp, sp, #12	; 0xc
   32540:	e8bd8000 	ldmia	sp!, {pc}

00032544 <part_getbootstart>:
   32544:	e52de004 	str	lr, [sp, -#4]!
   32548:	e24ddf83 	sub	sp, sp, #524	; 0x20c
   3254c:	e58d0208 	str	r0, [sp, #520]
   32550:	e28d3008 	add	r3, sp, #8	; 0x8
   32554:	e59d0208 	ldr	r0, [sp, #520]
   32558:	e3a01000 	mov	r1, #0	; 0x0
   3255c:	e1a02003 	mov	r2, r3
   32560:	e3a03c02 	mov	r3, #512	; 0x200
   32564:	ebfffdeb 	bl	31d18 <ide_read_sectors>
   32568:	e1a03000 	mov	r3, r0
   3256c:	e3530000 	cmp	r3, #0	; 0x0
   32570:	0a000001 	beq	3257c <part_getbootstart+0x38>
   32574:	e3a00000 	mov	r0, #0	; 0x0
   32578:	ea00003f 	b	3267c <part_getbootstart+0x138>
   3257c:	e5dd3206 	ldrb	r3, [sp, #518]
   32580:	e3530055 	cmp	r3, #85	; 0x55
   32584:	1a000003 	bne	32598 <part_getbootstart+0x54>
   32588:	e5dd3207 	ldrb	r3, [sp, #519]
   3258c:	e35300aa 	cmp	r3, #170	; 0xaa
   32590:	1a000000 	bne	32598 <part_getbootstart+0x54>
   32594:	ea000008 	b	325bc <part_getbootstart+0x78>
   32598:	e5dd3206 	ldrb	r3, [sp, #518]
   3259c:	e3530052 	cmp	r3, #82	; 0x52
   325a0:	1a000003 	bne	325b4 <part_getbootstart+0x70>
   325a4:	e5dd3207 	ldrb	r3, [sp, #519]
   325a8:	e353004b 	cmp	r3, #75	; 0x4b
   325ac:	1a000000 	bne	325b4 <part_getbootstart+0x70>
   325b0:	ea000001 	b	325bc <part_getbootstart+0x78>
   325b4:	e3a00000 	mov	r0, #0	; 0x0
   325b8:	ea00002f 	b	3267c <part_getbootstart+0x138>
   325bc:	e1a00000 	nop			(mov r0,r0)
   325c0:	e28d2008 	add	r2, sp, #8	; 0x8
   325c4:	e2823f6f 	add	r3, r2, #444	; 0x1bc
   325c8:	e2833002 	add	r3, r3, #2	; 0x2
   325cc:	e58d3004 	str	r3, [sp, #4]
   325d0:	e3a03000 	mov	r3, #0	; 0x0
   325d4:	e58d3000 	str	r3, [sp]
   325d8:	e59d3000 	ldr	r3, [sp]
   325dc:	e3530003 	cmp	r3, #3	; 0x3
   325e0:	da000000 	ble	325e8 <part_getbootstart+0xa4>
   325e4:	ea000022 	b	32674 <part_getbootstart+0x130>
   325e8:	e59d3004 	ldr	r3, [sp, #4]
   325ec:	e5d32000 	ldrb	r2, [r3]
   325f0:	e3520080 	cmp	r2, #128	; 0x80
   325f4:	1a000017 	bne	32658 <part_getbootstart+0x114>
   325f8:	e3a03008 	mov	r3, #8	; 0x8
   325fc:	e59d1004 	ldr	r1, [sp, #4]
   32600:	e0832001 	add	r2, r3, r1
   32604:	e5d23000 	ldrb	r3, [r2]
   32608:	e3a02009 	mov	r2, #9	; 0x9
   3260c:	e59d1004 	ldr	r1, [sp, #4]
   32610:	e0822001 	add	r2, r2, r1
   32614:	e5d21000 	ldrb	r1, [r2]
   32618:	e1a02401 	mov	r2, r1, lsl #8
   3261c:	e1833002 	orr	r3, r3, r2
   32620:	e3a0200a 	mov	r2, #10	; 0xa
   32624:	e59d1004 	ldr	r1, [sp, #4]
   32628:	e0822001 	add	r2, r2, r1
   3262c:	e5d21000 	ldrb	r1, [r2]
   32630:	e1a02801 	mov	r2, r1, lsl #16
   32634:	e1833002 	orr	r3, r3, r2
   32638:	e3a0200b 	mov	r2, #11	; 0xb
   3263c:	e59d1004 	ldr	r1, [sp, #4]
   32640:	e0822001 	add	r2, r2, r1
   32644:	e5d21000 	ldrb	r1, [r2]
   32648:	e1a02c01 	mov	r2, r1, lsl #24
   3264c:	e1833002 	orr	r3, r3, r2
   32650:	e1a00003 	mov	r0, r3
   32654:	ea000008 	b	3267c <part_getbootstart+0x138>
   32658:	e59d3004 	ldr	r3, [sp, #4]
   3265c:	e2832010 	add	r2, r3, #16	; 0x10
   32660:	e58d2004 	str	r2, [sp, #4]
   32664:	e59d3000 	ldr	r3, [sp]
   32668:	e2832001 	add	r2, r3, #1	; 0x1
   3266c:	e58d2000 	str	r2, [sp]
   32670:	eaffffd8 	b	325d8 <part_getbootstart+0x94>
   32674:	e3a00000 	mov	r0, #0	; 0x0
   32678:	eaffffff 	b	3267c <part_getbootstart+0x138>
   3267c:	e28ddf83 	add	sp, sp, #524	; 0x20c
   32680:	e8bd8000 	ldmia	sp!, {pc}

00032684 <read_mapped_file>:
   32684:	e52de004 	str	lr, [sp, -#4]!
   32688:	e24dd020 	sub	sp, sp, #32	; 0x20
   3268c:	e58d001c 	str	r0, [sp, #28]
   32690:	e58d1018 	str	r1, [sp, #24]
   32694:	e58d2014 	str	r2, [sp, #20]
   32698:	e58d3010 	str	r3, [sp, #16]
   3269c:	e59d3010 	ldr	r3, [sp, #16]
   326a0:	e58d300c 	str	r3, [sp, #12]
   326a4:	e59d3014 	ldr	r3, [sp, #20]
   326a8:	e5932000 	ldr	r2, [r3]
   326ac:	e59f3154 	ldr	r3, [pc, #154]	; 32808 <read_mapped_file+0x184>
   326b0:	e1520003 	cmp	r2, r3
   326b4:	0a000001 	beq	326c0 <read_mapped_file+0x3c>
   326b8:	e3e00000 	mvn	r0, #0	; 0x0
   326bc:	ea000052 	b	3280c <read_mapped_file+0x188>
   326c0:	e59d0014 	ldr	r0, [sp, #20]
   326c4:	ebffff4b 	bl	323f8 <dump_sector>
   326c8:	e3a03000 	mov	r3, #0	; 0x0
   326cc:	e58d3008 	str	r3, [sp, #8]
   326d0:	e59d3008 	ldr	r3, [sp, #8]
   326d4:	e353003e 	cmp	r3, #62	; 0x3e
   326d8:	ca000008 	bgt	32700 <read_mapped_file+0x7c>
   326dc:	e59d3014 	ldr	r3, [sp, #20]
   326e0:	e59d2008 	ldr	r2, [sp, #8]
   326e4:	e1a01002 	mov	r1, r2
   326e8:	e1a02181 	mov	r2, r1, lsl #3
   326ec:	e2833008 	add	r3, r3, #8	; 0x8
   326f0:	e7932002 	ldr	r2, [r3, r2]
   326f4:	e3520000 	cmp	r2, #0	; 0x0
   326f8:	1a000001 	bne	32704 <read_mapped_file+0x80>
   326fc:	eaffffff 	b	32700 <read_mapped_file+0x7c>
   32700:	ea00003c 	b	327f8 <read_mapped_file+0x174>
   32704:	e59d3014 	ldr	r3, [sp, #20]
   32708:	e59d2008 	ldr	r2, [sp, #8]
   3270c:	e1a01002 	mov	r1, r2
   32710:	e1a02181 	mov	r2, r1, lsl #3
   32714:	e2833008 	add	r3, r3, #8	; 0x8
   32718:	e59d1014 	ldr	r1, [sp, #20]
   3271c:	e7933002 	ldr	r3, [r3, r2]
   32720:	e5912004 	ldr	r2, [r1, #4]
   32724:	e0030392 	mul	r3, r2, r3
   32728:	e1a024a3 	mov	r2, r3, lsr #9
   3272c:	e59d3018 	ldr	r3, [sp, #24]
   32730:	e0832002 	add	r2, r3, r2
   32734:	e58d2000 	str	r2, [sp]
   32738:	e59d3014 	ldr	r3, [sp, #20]
   3273c:	e59d2008 	ldr	r2, [sp, #8]
   32740:	e1a01002 	mov	r1, r2
   32744:	e1a02181 	mov	r2, r1, lsl #3
   32748:	e283300c 	add	r3, r3, #12	; 0xc
   3274c:	e7932002 	ldr	r2, [r3, r2]
   32750:	e58d2004 	str	r2, [sp, #4]
   32754:	e59d3004 	ldr	r3, [sp, #4]
   32758:	e3530000 	cmp	r3, #0	; 0x0
   3275c:	ca000000 	bgt	32764 <read_mapped_file+0xe0>
   32760:	ea000020 	b	327e8 <read_mapped_file+0x164>
   32764:	e59d2004 	ldr	r2, [sp, #4]
   32768:	e3520080 	cmp	r2, #128	; 0x80
   3276c:	b1a03002 	movlt	r3, r2
   32770:	a3a03080 	movge	r3, #128	; 0x80
   32774:	e59d2014 	ldr	r2, [sp, #20]
   32778:	e5921004 	ldr	r1, [r2, #4]
   3277c:	e0030391 	mul	r3, r1, r3
   32780:	e59d001c 	ldr	r0, [sp, #28]
   32784:	e59d1000 	ldr	r1, [sp]
   32788:	e59d2010 	ldr	r2, [sp, #16]
   3278c:	ebfffd61 	bl	31d18 <ide_read_sectors>
   32790:	e1a03000 	mov	r3, r0
   32794:	e3530000 	cmp	r3, #0	; 0x0
   32798:	0a000001 	beq	327a4 <read_mapped_file+0x120>
   3279c:	e3e00000 	mvn	r0, #0	; 0x0
   327a0:	ea000019 	b	3280c <read_mapped_file+0x188>
   327a4:	e59d2004 	ldr	r2, [sp, #4]
   327a8:	e3520080 	cmp	r2, #128	; 0x80
   327ac:	b1a03002 	movlt	r3, r2
   327b0:	a3a03080 	movge	r3, #128	; 0x80
   327b4:	e59d2014 	ldr	r2, [sp, #20]
   327b8:	e5921004 	ldr	r1, [r2, #4]
   327bc:	e0030391 	mul	r3, r1, r3
   327c0:	e59d2010 	ldr	r2, [sp, #16]
   327c4:	e0823003 	add	r3, r2, r3
   327c8:	e58d3010 	str	r3, [sp, #16]
   327cc:	e59d3000 	ldr	r3, [sp]
   327d0:	e2832c01 	add	r2, r3, #256	; 0x100
   327d4:	e58d2000 	str	r2, [sp]
   327d8:	e59d3004 	ldr	r3, [sp, #4]
   327dc:	e2432080 	sub	r2, r3, #128	; 0x80
   327e0:	e58d2004 	str	r2, [sp, #4]
   327e4:	eaffffda 	b	32754 <read_mapped_file+0xd0>
   327e8:	e59d3008 	ldr	r3, [sp, #8]
   327ec:	e2832001 	add	r2, r3, #1	; 0x1
   327f0:	e58d2008 	str	r2, [sp, #8]
   327f4:	eaffffb5 	b	326d0 <read_mapped_file+0x4c>
   327f8:	e59d000c 	ldr	r0, [sp, #12]
   327fc:	ebfffefd 	bl	323f8 <dump_sector>
   32800:	e3a00000 	mov	r0, #0	; 0x0
   32804:	ea000000 	b	3280c <read_mapped_file+0x188>
   32808:	c53a4b2d 	ldrgt	r4, [r10, -#2861]!
   3280c:	e28dd020 	add	sp, sp, #32	; 0x20
   32810:	e8bd8000 	ldmia	sp!, {pc}

00032814 <ide_load>:
   32814:	e52de004 	str	lr, [sp, -#4]!
   32818:	e24dde21 	sub	sp, sp, #528	; 0x210
   3281c:	e3a03080 	mov	r3, #128	; 0x80
   32820:	e58d3000 	str	r3, [sp]
   32824:	e3a03000 	mov	r3, #0	; 0x0
   32828:	e58d3004 	str	r3, [sp, #4]
   3282c:	e59d3004 	ldr	r3, [sp, #4]
   32830:	e3530003 	cmp	r3, #3	; 0x3
   32834:	da000000 	ble	3283c <ide_load+0x28>
   32838:	ea000013 	b	3288c <ide_load+0x78>
   3283c:	e59d2004 	ldr	r2, [sp, #4]
   32840:	e1a03002 	mov	r3, r2
   32844:	e1a03083 	mov	r3, r3, lsl #1
   32848:	e0833002 	add	r3, r3, r2
   3284c:	e1a02183 	mov	r2, r3, lsl #3
   32850:	e59f30e0 	ldr	r3, [pc, #e0]	; 32938 <ide_load+0x124>
   32854:	e0832002 	add	r2, r3, r2
   32858:	e58d220c 	str	r2, [sp, #524]
   3285c:	e59d020c 	ldr	r0, [sp, #524]
   32860:	ebffff37 	bl	32544 <part_getbootstart>
   32864:	e1a03000 	mov	r3, r0
   32868:	e58d3008 	str	r3, [sp, #8]
   3286c:	e59d3008 	ldr	r3, [sp, #8]
   32870:	e3530000 	cmp	r3, #0	; 0x0
   32874:	0a000000 	beq	3287c <ide_load+0x68>
   32878:	ea000003 	b	3288c <ide_load+0x78>
   3287c:	e59d3004 	ldr	r3, [sp, #4]
   32880:	e2832001 	add	r2, r3, #1	; 0x1
   32884:	e58d2004 	str	r2, [sp, #4]
   32888:	eaffffe7 	b	3282c <ide_load+0x18>
   3288c:	e59d3008 	ldr	r3, [sp, #8]
   32890:	e3530000 	cmp	r3, #0	; 0x0
   32894:	1a000001 	bne	328a0 <ide_load+0x8c>
   32898:	e3e00000 	mvn	r0, #0	; 0x0
   3289c:	ea000029 	b	32948 <ide_load+0x134>
   328a0:	e28d300c 	add	r3, sp, #12	; 0xc
   328a4:	e59d020c 	ldr	r0, [sp, #524]
   328a8:	e59d1008 	ldr	r1, [sp, #8]
   328ac:	e1a02003 	mov	r2, r3
   328b0:	e3a03c02 	mov	r3, #512	; 0x200
   328b4:	ebfffd17 	bl	31d18 <ide_read_sectors>
   328b8:	e1a03000 	mov	r3, r0
   328bc:	e3530000 	cmp	r3, #0	; 0x0
   328c0:	0a000001 	beq	328cc <ide_load+0xb8>
   328c4:	e3e00000 	mvn	r0, #0	; 0x0
   328c8:	ea00001e 	b	32948 <ide_load+0x134>
   328cc:	e28d300c 	add	r3, sp, #12	; 0xc
   328d0:	e28d200c 	add	r2, sp, #12	; 0xc
   328d4:	e2821060 	add	r1, r2, #96	; 0x60
   328d8:	e1a00003 	mov	r0, r3
   328dc:	e59d2000 	ldr	r2, [sp]
   328e0:	eb00030f 	bl	33524 <memcpy>
   328e4:	e28d300c 	add	r3, sp, #12	; 0xc
   328e8:	e59fc04c 	ldr	r12, [pc, #4c]	; 3293c <ide_load+0x128>
   328ec:	e59d020c 	ldr	r0, [sp, #524]
   328f0:	e59d1008 	ldr	r1, [sp, #8]
   328f4:	e1a02003 	mov	r2, r3
   328f8:	e59c3000 	ldr	r3, [r12]
   328fc:	ebffff60 	bl	32684 <read_mapped_file>
   32900:	e1a03000 	mov	r3, r0
   32904:	e3530000 	cmp	r3, #0	; 0x0
   32908:	0a000001 	beq	32914 <ide_load+0x100>
   3290c:	e3e00000 	mvn	r0, #0	; 0x0
   32910:	ea00000c 	b	32948 <ide_load+0x134>
   32914:	e59f3024 	ldr	r3, [pc, #24]	; 32940 <ide_load+0x12c>
   32918:	e3a02001 	mov	r2, #1	; 0x1
   3291c:	e5832000 	str	r2, [r3]
   32920:	e59f301c 	ldr	r3, [pc, #1c]	; 32944 <ide_load+0x130>
   32924:	e3a02c03 	mov	r2, #768	; 0x300
   32928:	e2822001 	add	r2, r2, #1	; 0x1
   3292c:	e5832000 	str	r2, [r3]
   32930:	e3a00000 	mov	r0, #0	; 0x0
   32934:	ea000003 	b	32948 <ide_load+0x134>
   32938:	000355bc 	streqh	r5, [r3], -r12
   3293c:	00035458 	andeq	r5, r3, r8, asr r4
   32940:	00035a14 	andeq	r5, r3, r4, lsl r10
   32944:	00035a0c 	andeq	r5, r3, r12, lsl #20
   32948:	e28dde21 	add	sp, sp, #528	; 0x210
   3294c:	e8bd8000 	ldmia	sp!, {pc}

00032950 <ide_stop>:
   32950:	e3a00000 	mov	r0, #0	; 0x0
   32954:	eaffffff 	b	32958 <ide_stop+0x8>
   32958:	e1a0f00e 	mov	pc, lr

0003295c <read_word>:
   3295c:	e24dd004 	sub	sp, sp, #4	; 0x4
   32960:	e1a03000 	mov	r3, r0
   32964:	e1d320b0 	ldrh	r2, [r3]
   32968:	e1a01002 	mov	r1, r2
   3296c:	e5cd1002 	strb	r1, [sp, #2]
   32970:	e1a02441 	mov	r2, r1, asr #8
   32974:	e5cd2003 	strb	r2, [sp, #3]
   32978:	e28d1002 	add	r1, sp, #2	; 0x2
   3297c:	e5d12000 	ldrb	r2, [r1]
   32980:	e5d11001 	ldrb	r1, [r1, #1]
   32984:	e1822401 	orr	r2, r2, r1, lsl #8
   32988:	e1a00002 	mov	r0, r2
   3298c:	eaffffff 	b	32990 <read_word+0x34>
   32990:	e28dd004 	add	sp, sp, #4	; 0x4
   32994:	e1a0f00e 	mov	pc, lr

00032998 <read_byte>:
   32998:	e1a03000 	mov	r3, r0
   3299c:	e5d31000 	ldrb	r1, [r3]
   329a0:	e20120ff 	and	r2, r1, #255	; 0xff
   329a4:	e1a00002 	mov	r0, r2
   329a8:	eaffffff 	b	329ac <read_byte+0x14>
   329ac:	e1a0f00e 	mov	pc, lr

000329b0 <write_byte>:
   329b0:	e52de004 	str	lr, [sp, -#4]!
   329b4:	e1a02000 	mov	r2, r0
   329b8:	e1a03001 	mov	r3, r1
   329bc:	e20210ff 	and	r1, r2, #255	; 0xff
   329c0:	e1a0c001 	mov	r12, r1
   329c4:	e1a0e00c 	mov	lr, r12
   329c8:	e5c3e000 	strb	lr, [r3]
   329cc:	e8bd8000 	ldmia	sp!, {pc}

000329d0 <ide_get_status_reg>:
   329d0:	e92d4010 	stmdb	sp!, {r4, lr}
   329d4:	e24dd004 	sub	sp, sp, #4	; 0x4
   329d8:	e1a04000 	mov	r4, r0
   329dc:	e5943000 	ldr	r3, [r4]
   329e0:	e5932020 	ldr	r2, [r3, #32]
   329e4:	e282331f 	add	r3, r2, #2080374784	; 0x7c000000
   329e8:	e1a00003 	mov	r0, r3
   329ec:	ebffffe9 	bl	32998 <read_byte>
   329f0:	e1a03000 	mov	r3, r0
   329f4:	e5cd3002 	strb	r3, [sp, #2]
   329f8:	e5943000 	ldr	r3, [r4]
   329fc:	e593201c 	ldr	r2, [r3, #28]
   32a00:	e282331f 	add	r3, r2, #2080374784	; 0x7c000000
   32a04:	e1a00003 	mov	r0, r3
   32a08:	ebffffe2 	bl	32998 <read_byte>
   32a0c:	e1a03000 	mov	r3, r0
   32a10:	e5cd3003 	strb	r3, [sp, #3]
   32a14:	e5dd3002 	ldrb	r3, [sp, #2]
   32a18:	e5dd2003 	ldrb	r2, [sp, #3]
   32a1c:	e0233002 	eor	r3, r3, r2
   32a20:	e20320ff 	and	r2, r3, #255	; 0xff
   32a24:	e3c23002 	bic	r3, r2, #2	; 0x2
   32a28:	e3530000 	cmp	r3, #0	; 0x0
   32a2c:	0a000001 	beq	32a38 <ide_get_status_reg+0x68>
   32a30:	e3a03007 	mov	r3, #7	; 0x7
   32a34:	ea000000 	b	32a3c <ide_get_status_reg+0x6c>
   32a38:	e3a03008 	mov	r3, #8	; 0x8
   32a3c:	e1a00003 	mov	r0, r3
   32a40:	eaffffff 	b	32a44 <ide_get_status_reg+0x74>
   32a44:	e28dd004 	add	sp, sp, #4	; 0x4
   32a48:	e8bd8010 	ldmia	sp!, {r4, pc}

00032a4c <ide_send_command>:
   32a4c:	e92d45f0 	stmdb	sp!, {r4, r5, r6, r7, r8, r10, lr}
   32a50:	e1a07000 	mov	r7, r0
   32a54:	e1a06001 	mov	r6, r1
   32a58:	e1a05002 	mov	r5, r2
   32a5c:	e1a04003 	mov	r4, r3
   32a60:	e20680ff 	and	r8, r6, #255	; 0xff
   32a64:	e1a0a008 	mov	r10, r8
   32a68:	e5973000 	ldr	r3, [r7]
   32a6c:	e593201c 	ldr	r2, [r3, #28]
   32a70:	e282331f 	add	r3, r2, #2080374784	; 0x7c000000
   32a74:	e1a0000a 	mov	r0, r10
   32a78:	e1a01003 	mov	r1, r3
   32a7c:	ebffffcb 	bl	329b0 <write_byte>
   32a80:	e59f305c 	ldr	r3, [pc, #5c]	; 32ae4 <ide_send_command+0x98>
   32a84:	e5932000 	ldr	r2, [r3]
   32a88:	e0855002 	add	r5, r5, r2
   32a8c:	e59f3050 	ldr	r3, [pc, #50]	; 32ae4 <ide_send_command+0x98>
   32a90:	e5932000 	ldr	r2, [r3]
   32a94:	e1550002 	cmp	r5, r2
   32a98:	2a000001 	bcs	32aa4 <ide_send_command+0x58>
   32a9c:	e3a00001 	mov	r0, #1	; 0x1
   32aa0:	ea000010 	b	32ae8 <ide_send_command+0x9c>
   32aa4:	e5973000 	ldr	r3, [r7]
   32aa8:	e1a02004 	mov	r2, r4
   32aac:	e1a01102 	mov	r1, r2, lsl #2
   32ab0:	e7932001 	ldr	r2, [r3, r1]
   32ab4:	e282331f 	add	r3, r2, #2080374784	; 0x7c000000
   32ab8:	e1a00003 	mov	r0, r3
   32abc:	ebffffb5 	bl	32998 <read_byte>
   32ac0:	e1a03000 	mov	r3, r0
   32ac4:	e2032080 	and	r2, r3, #128	; 0x80
   32ac8:	e20230ff 	and	r3, r2, #255	; 0xff
   32acc:	e3530000 	cmp	r3, #0	; 0x0
   32ad0:	1a000000 	bne	32ad8 <ide_send_command+0x8c>
   32ad4:	ea000000 	b	32adc <ide_send_command+0x90>
   32ad8:	eaffffeb 	b	32a8c <ide_send_command+0x40>
   32adc:	e3a00000 	mov	r0, #0	; 0x0
   32ae0:	ea000000 	b	32ae8 <ide_send_command+0x9c>
   32ae4:	00035a10 	andeq	r5, r3, r0, lsl r10
   32ae8:	e8bd85f0 	ldmia	sp!, {r4, r5, r6, r7, r8, r10, pc}

00032aec <ide_status_ok>:
   32aec:	e92d4070 	stmdb	sp!, {r4, r5, r6, lr}
   32af0:	e24dd004 	sub	sp, sp, #4	; 0x4
   32af4:	e1a04000 	mov	r4, r0
   32af8:	e1a06001 	mov	r6, r1
   32afc:	e1a05002 	mov	r5, r2
   32b00:	e5943000 	ldr	r3, [r4]
   32b04:	e593201c 	ldr	r2, [r3, #28]
   32b08:	e282331f 	add	r3, r2, #2080374784	; 0x7c000000
   32b0c:	e1a00003 	mov	r0, r3
   32b10:	ebffffa0 	bl	32998 <read_byte>
   32b14:	e1a03000 	mov	r3, r0
   32b18:	e5cd3003 	strb	r3, [sp, #3]
   32b1c:	e5dd3003 	ldrb	r3, [sp, #3]
   32b20:	e1862005 	orr	r2, r6, r5
   32b24:	e0033002 	and	r3, r3, r2
   32b28:	e1530006 	cmp	r3, r6
   32b2c:	13a03000 	movne	r3, #0	; 0x0
   32b30:	03a03001 	moveq	r3, #1	; 0x1
   32b34:	e1a00003 	mov	r0, r3
   32b38:	eaffffff 	b	32b3c <ide_status_ok+0x50>
   32b3c:	e28dd004 	add	sp, sp, #4	; 0x4
   32b40:	e8bd8070 	ldmia	sp!, {r4, r5, r6, pc}

00032b44 <ide_select_drive>:
   32b44:	e92d4010 	stmdb	sp!, {r4, lr}
   32b48:	e1a04000 	mov	r4, r0
   32b4c:	e5d43011 	ldrb	r3, [r4, #17]
   32b50:	e5942000 	ldr	r2, [r4]
   32b54:	e5921018 	ldr	r1, [r2, #24]
   32b58:	e281231f 	add	r2, r1, #2080374784	; 0x7c000000
   32b5c:	e1a00003 	mov	r0, r3
   32b60:	e1a01002 	mov	r1, r2
   32b64:	ebffff91 	bl	329b0 <write_byte>
   32b68:	e5943000 	ldr	r3, [r4]
   32b6c:	e5932018 	ldr	r2, [r3, #24]
   32b70:	e282331f 	add	r3, r2, #2080374784	; 0x7c000000
   32b74:	e1a00003 	mov	r0, r3
   32b78:	ebffff86 	bl	32998 <read_byte>
   32b7c:	e1a03000 	mov	r3, r0
   32b80:	e20320ff 	and	r2, r3, #255	; 0xff
   32b84:	e5d43011 	ldrb	r3, [r4, #17]
   32b88:	e1520003 	cmp	r2, r3
   32b8c:	13a03000 	movne	r3, #0	; 0x0
   32b90:	03a03001 	moveq	r3, #1	; 0x1
   32b94:	e1a00003 	mov	r0, r3
   32b98:	eaffffff 	b	32b9c <ide_select_drive+0x58>
   32b9c:	e8bd8010 	ldmia	sp!, {r4, pc}

00032ba0 <vga_setcursor>:
   32ba0:	e52de004 	str	lr, [sp, -#4]!
   32ba4:	e24dd004 	sub	sp, sp, #4	; 0x4
   32ba8:	e59f3044 	ldr	r3, [pc, #44]	; 32bf4 <vga_setcursor+0x54>
   32bac:	e5d32000 	ldrb	r2, [r3]
   32bb0:	e1a03002 	mov	r3, r2
   32bb4:	e1a03103 	mov	r3, r3, lsl #2
   32bb8:	e0833002 	add	r3, r3, r2
   32bbc:	e1a02203 	mov	r2, r3, lsl #4
   32bc0:	e59f3030 	ldr	r3, [pc, #30]	; 32bf8 <vga_setcursor+0x58>
   32bc4:	e5d31000 	ldrb	r1, [r3]
   32bc8:	e0823001 	add	r3, r2, r1
   32bcc:	e58d3000 	str	r3, [sp]
   32bd0:	e59d2000 	ldr	r2, [sp]
   32bd4:	e1a03442 	mov	r3, r2, asr #8
   32bd8:	e3a0000e 	mov	r0, #14	; 0xe
   32bdc:	e1a01003 	mov	r1, r3
   32be0:	eb000215 	bl	3343c <crtc_write>
   32be4:	e3a0000f 	mov	r0, #15	; 0xf
   32be8:	e59d1000 	ldr	r1, [sp]
   32bec:	eb000212 	bl	3343c <crtc_write>
   32bf0:	ea000001 	b	32bfc <vga_setcursor+0x5c>
   32bf4:	000355fc 	streqsh	r5, [r3], -r12
   32bf8:	000355f8 	streqsh	r5, [r3], -r8
   32bfc:	e28dd004 	add	sp, sp, #4	; 0x4
   32c00:	e8bd8000 	ldmia	sp!, {pc}

00032c04 <vga_load_regs>:
   32c04:	e52de004 	str	lr, [sp, -#4]!
   32c08:	e24dd014 	sub	sp, sp, #20	; 0x14
   32c0c:	e58d0010 	str	r0, [sp, #16]
   32c10:	e1a03002 	mov	r3, r2
   32c14:	e5cd100e 	strb	r1, [sp, #14]
   32c18:	e1a02441 	mov	r2, r1, asr #8
   32c1c:	e5cd200f 	strb	r2, [sp, #15]
   32c20:	e5cd300c 	strb	r3, [sp, #12]
   32c24:	e1a03443 	mov	r3, r3, asr #8
   32c28:	e5cd300d 	strb	r3, [sp, #13]
   32c2c:	e59d3010 	ldr	r3, [sp, #16]
   32c30:	e5d32000 	ldrb	r2, [r3]
   32c34:	e3520008 	cmp	r2, #8	; 0x8
   32c38:	1a000000 	bne	32c40 <vga_load_regs+0x3c>
   32c3c:	ea0000c4 	b	32f54 <vga_load_regs+0x350>
   32c40:	e59d3010 	ldr	r3, [sp, #16]
   32c44:	e5d32000 	ldrb	r2, [r3]
   32c48:	e3520007 	cmp	r2, #7	; 0x7
   32c4c:	979ff102 	ldrls	pc, [pc, r2, lsl #2]
   32c50:	ea0000b6 	b	32f30 <vga_load_regs+0x32c>
   32c54:	00032c74 	andeq	r2, r3, r4, ror r12
   32c58:	00032c90 	muleq	r3, r0, r12
   32c5c:	00032cac 	andeq	r2, r3, r12, lsr #25
   32c60:	00032cc8 	andeq	r2, r3, r8, asr #25
   32c64:	00032ce4 	andeq	r2, r3, r4, ror #25
   32c68:	00032d50 	andeq	r2, r3, r0, asr sp
   32c6c:	00032d74 	andeq	r2, r3, r4, ror sp
   32c70:	00032e44 	andeq	r2, r3, r4, asr #28
   32c74:	e59d2010 	ldr	r2, [sp, #16]
   32c78:	e5d23001 	ldrb	r3, [r2, #1]
   32c7c:	e59d2010 	ldr	r2, [sp, #16]
   32c80:	e5d21002 	ldrb	r1, [r2, #2]
   32c84:	e1a00003 	mov	r0, r3
   32c88:	eb0001d9 	bl	333f4 <attrib_write>
   32c8c:	ea0000a7 	b	32f30 <vga_load_regs+0x32c>
   32c90:	e59d2010 	ldr	r2, [sp, #16]
   32c94:	e5d23001 	ldrb	r3, [r2, #1]
   32c98:	e59d2010 	ldr	r2, [sp, #16]
   32c9c:	e5d21002 	ldrb	r1, [r2, #2]
   32ca0:	e1a00003 	mov	r0, r3
   32ca4:	eb00020a 	bl	334d4 <grph_write>
   32ca8:	ea0000a0 	b	32f30 <vga_load_regs+0x32c>
   32cac:	e59d2010 	ldr	r2, [sp, #16]
   32cb0:	e5d23001 	ldrb	r3, [r2, #1]
   32cb4:	e59d2010 	ldr	r2, [sp, #16]
   32cb8:	e5d21002 	ldrb	r1, [r2, #2]
   32cbc:	e1a00003 	mov	r0, r3
   32cc0:	eb0001dd 	bl	3343c <crtc_write>
   32cc4:	ea000099 	b	32f30 <vga_load_regs+0x32c>
   32cc8:	e59d2010 	ldr	r2, [sp, #16]
   32ccc:	e5d23001 	ldrb	r3, [r2, #1]
   32cd0:	e59d2010 	ldr	r2, [sp, #16]
   32cd4:	e5d21002 	ldrb	r1, [r2, #2]
   32cd8:	e1a00003 	mov	r0, r3
   32cdc:	eb0001e9 	bl	33488 <seq_write>
   32ce0:	ea000092 	b	32f30 <vga_load_regs+0x32c>
   32ce4:	e3a03ff2 	mov	r3, #968	; 0x3c8
   32ce8:	e59f1250 	ldr	r1, [pc, #250]	; 32f40 <vga_load_regs+0x33c>
   32cec:	e5912000 	ldr	r2, [r1]
   32cf0:	e0833002 	add	r3, r3, r2
   32cf4:	e3a02000 	mov	r2, #0	; 0x0
   32cf8:	e1a01002 	mov	r1, r2
   32cfc:	e5c31000 	strb	r1, [r3]
   32d00:	e3a03000 	mov	r3, #0	; 0x0
   32d04:	e58d3000 	str	r3, [sp]
   32d08:	e59d3000 	ldr	r3, [sp]
   32d0c:	e353002f 	cmp	r3, #47	; 0x2f
   32d10:	9a000000 	bls	32d18 <vga_load_regs+0x114>
   32d14:	ea00000c 	b	32d4c <vga_load_regs+0x148>
   32d18:	e3a03ff2 	mov	r3, #968	; 0x3c8
   32d1c:	e2833001 	add	r3, r3, #1	; 0x1
   32d20:	e59f1218 	ldr	r1, [pc, #218]	; 32f40 <vga_load_regs+0x33c>
   32d24:	e5912000 	ldr	r2, [r1]
   32d28:	e0833002 	add	r3, r3, r2
   32d2c:	e59f2210 	ldr	r2, [pc, #210]	; 32f44 <vga_load_regs+0x340>
   32d30:	e59d1000 	ldr	r1, [sp]
   32d34:	e7d22001 	ldrb	r2, [r2, r1]
   32d38:	e5c32000 	strb	r2, [r3]
   32d3c:	e59d3000 	ldr	r3, [sp]
   32d40:	e2832001 	add	r2, r3, #1	; 0x1
   32d44:	e58d2000 	str	r2, [sp]
   32d48:	eaffffee 	b	32d08 <vga_load_regs+0x104>
   32d4c:	ea000077 	b	32f30 <vga_load_regs+0x32c>
   32d50:	e3a03d0f 	mov	r3, #960	; 0x3c0
   32d54:	e2833002 	add	r3, r3, #2	; 0x2
   32d58:	e59f11e0 	ldr	r1, [pc, #1e0]	; 32f40 <vga_load_regs+0x33c>
   32d5c:	e5912000 	ldr	r2, [r1]
   32d60:	e0833002 	add	r3, r3, r2
   32d64:	e59d2010 	ldr	r2, [sp, #16]
   32d68:	e5d21002 	ldrb	r1, [r2, #2]
   32d6c:	e5c31000 	strb	r1, [r3]
   32d70:	ea00006e 	b	32f30 <vga_load_regs+0x32c>
   32d74:	e1a00000 	nop			(mov r0,r0)
   32d78:	e3a03000 	mov	r3, #0	; 0x0
   32d7c:	e58d3008 	str	r3, [sp, #8]
   32d80:	e59d3008 	ldr	r3, [sp, #8]
   32d84:	e35300ff 	cmp	r3, #255	; 0xff
   32d88:	da000000 	ble	32d90 <vga_load_regs+0x18c>
   32d8c:	ea00002b 	b	32e40 <vga_load_regs+0x23c>
   32d90:	e1a00000 	nop			(mov r0,r0)
   32d94:	e3a03000 	mov	r3, #0	; 0x0
   32d98:	e58d3004 	str	r3, [sp, #4]
   32d9c:	e59d3004 	ldr	r3, [sp, #4]
   32da0:	e353001f 	cmp	r3, #31	; 0x1f
   32da4:	da000000 	ble	32dac <vga_load_regs+0x1a8>
   32da8:	ea000020 	b	32e30 <vga_load_regs+0x22c>
   32dac:	e59d3004 	ldr	r3, [sp, #4]
   32db0:	e3530007 	cmp	r3, #7	; 0x7
   32db4:	ca00000f 	bgt	32df8 <vga_load_regs+0x1f4>
   32db8:	e59d2008 	ldr	r2, [sp, #8]
   32dbc:	e1a03282 	mov	r3, r2, lsl #5
   32dc0:	e59d2004 	ldr	r2, [sp, #4]
   32dc4:	e0833002 	add	r3, r3, r2
   32dc8:	e59f1178 	ldr	r1, [pc, #178]	; 32f48 <vga_load_regs+0x344>
   32dcc:	e5912000 	ldr	r2, [r1]
   32dd0:	e0833002 	add	r3, r3, r2
   32dd4:	e59f2170 	ldr	r2, [pc, #170]	; 32f4c <vga_load_regs+0x348>
   32dd8:	e59d1008 	ldr	r1, [sp, #8]
   32ddc:	e1a0c001 	mov	r12, r1
   32de0:	e1a0118c 	mov	r1, r12, lsl #3
   32de4:	e59dc004 	ldr	r12, [sp, #4]
   32de8:	e081100c 	add	r1, r1, r12
   32dec:	e7d22001 	ldrb	r2, [r2, r1]
   32df0:	e5c32000 	strb	r2, [r3]
   32df4:	ea000009 	b	32e20 <vga_load_regs+0x21c>
   32df8:	e59d2008 	ldr	r2, [sp, #8]
   32dfc:	e1a03282 	mov	r3, r2, lsl #5
   32e00:	e59d2004 	ldr	r2, [sp, #4]
   32e04:	e0833002 	add	r3, r3, r2
   32e08:	e59f1138 	ldr	r1, [pc, #138]	; 32f48 <vga_load_regs+0x344>
   32e0c:	e5912000 	ldr	r2, [r1]
   32e10:	e0833002 	add	r3, r3, r2
   32e14:	e3a02000 	mov	r2, #0	; 0x0
   32e18:	e1a01002 	mov	r1, r2
   32e1c:	e5c31000 	strb	r1, [r3]
   32e20:	e59d3004 	ldr	r3, [sp, #4]
   32e24:	e2832001 	add	r2, r3, #1	; 0x1
   32e28:	e58d2004 	str	r2, [sp, #4]
   32e2c:	eaffffda 	b	32d9c <vga_load_regs+0x198>
   32e30:	e59d3008 	ldr	r3, [sp, #8]
   32e34:	e2832001 	add	r2, r3, #1	; 0x1
   32e38:	e58d2008 	str	r2, [sp, #8]
   32e3c:	eaffffcf 	b	32d80 <vga_load_regs+0x17c>
   32e40:	ea00003a 	b	32f30 <vga_load_regs+0x32c>
   32e44:	e1a00000 	nop			(mov r0,r0)
   32e48:	e3a03000 	mov	r3, #0	; 0x0
   32e4c:	e58d3000 	str	r3, [sp]
   32e50:	e59f30f8 	ldr	r3, [pc, #f8]	; 32f50 <vga_load_regs+0x34c>
   32e54:	e59d2000 	ldr	r2, [sp]
   32e58:	e1a01002 	mov	r1, r2
   32e5c:	e1a02181 	mov	r2, r1, lsl #3
   32e60:	e0831002 	add	r1, r3, r2
   32e64:	e5d13000 	ldrb	r3, [r1]
   32e68:	e5d12001 	ldrb	r2, [r1, #1]
   32e6c:	e1833402 	orr	r3, r3, r2, lsl #8
   32e70:	e3530000 	cmp	r3, #0	; 0x0
   32e74:	1a000000 	bne	32e7c <vga_load_regs+0x278>
   32e78:	ea00002b 	b	32f2c <vga_load_regs+0x328>
   32e7c:	e59f30cc 	ldr	r3, [pc, #cc]	; 32f50 <vga_load_regs+0x34c>
   32e80:	e59d2000 	ldr	r2, [sp]
   32e84:	e1a01002 	mov	r1, r2
   32e88:	e1a02181 	mov	r2, r1, lsl #3
   32e8c:	e0831002 	add	r1, r3, r2
   32e90:	e5d13000 	ldrb	r3, [r1]
   32e94:	e5d12001 	ldrb	r2, [r1, #1]
   32e98:	e1833402 	orr	r3, r3, r2, lsl #8
   32e9c:	e28d100e 	add	r1, sp, #14	; 0xe
   32ea0:	e5d12000 	ldrb	r2, [r1]
   32ea4:	e5d11001 	ldrb	r1, [r1, #1]
   32ea8:	e1822401 	orr	r2, r2, r1, lsl #8
   32eac:	e1530002 	cmp	r3, r2
   32eb0:	1a000019 	bne	32f1c <vga_load_regs+0x318>
   32eb4:	e59f3094 	ldr	r3, [pc, #94]	; 32f50 <vga_load_regs+0x34c>
   32eb8:	e59d2000 	ldr	r2, [sp]
   32ebc:	e1a01002 	mov	r1, r2
   32ec0:	e1a02181 	mov	r2, r1, lsl #3
   32ec4:	e3a01002 	mov	r1, #2	; 0x2
   32ec8:	e0833002 	add	r3, r3, r2
   32ecc:	e0832001 	add	r2, r3, r1
   32ed0:	e1a01002 	mov	r1, r2
   32ed4:	e5d13000 	ldrb	r3, [r1]
   32ed8:	e5d12001 	ldrb	r2, [r1, #1]
   32edc:	e1833402 	orr	r3, r3, r2, lsl #8
   32ee0:	e28d100c 	add	r1, sp, #12	; 0xc
   32ee4:	e5d12000 	ldrb	r2, [r1]
   32ee8:	e5d11001 	ldrb	r1, [r1, #1]
   32eec:	e1822401 	orr	r2, r2, r1, lsl #8
   32ef0:	e1530002 	cmp	r3, r2
   32ef4:	1a000008 	bne	32f1c <vga_load_regs+0x318>
   32ef8:	e59f3050 	ldr	r3, [pc, #50]	; 32f50 <vga_load_regs+0x34c>
   32efc:	e59d2000 	ldr	r2, [sp]
   32f00:	e1a01002 	mov	r1, r2
   32f04:	e1a02181 	mov	r2, r1, lsl #3
   32f08:	e2833004 	add	r3, r3, #4	; 0x4
   32f0c:	e7930002 	ldr	r0, [r3, r2]
   32f10:	e3a01000 	mov	r1, #0	; 0x0
   32f14:	e3a02000 	mov	r2, #0	; 0x0
   32f18:	ebffff39 	bl	32c04 <vga_load_regs>
   32f1c:	e59d3000 	ldr	r3, [sp]
   32f20:	e2832001 	add	r2, r3, #1	; 0x1
   32f24:	e58d2000 	str	r2, [sp]
   32f28:	eaffffc8 	b	32e50 <vga_load_regs+0x24c>
   32f2c:	eaffffff 	b	32f30 <vga_load_regs+0x32c>
   32f30:	e59d3010 	ldr	r3, [sp, #16]
   32f34:	e2832004 	add	r2, r3, #4	; 0x4
   32f38:	e58d2010 	str	r2, [sp, #16]
   32f3c:	eaffff3a 	b	32c2c <vga_load_regs+0x28>
   32f40:	000355ec 	andeq	r5, r3, r12, ror #11
   32f44:	000353bc 	streqh	r5, [r3], -r12
   32f48:	000355f0 	streqsh	r5, [r3], -r0
   32f4c:	00034a3c 	andeq	r4, r3, r12, lsr r10
   32f50:	00035278 	andeq	r5, r3, r8, ror r2
   32f54:	e28dd014 	add	sp, sp, #20	; 0x14
   32f58:	e8bd8000 	ldmia	sp!, {pc}

00032f5c <vga_clear>:
   32f5c:	e24dd004 	sub	sp, sp, #4	; 0x4
   32f60:	e1a00000 	nop			(mov r0,r0)
   32f64:	e3a03000 	mov	r3, #0	; 0x0
   32f68:	e58d3000 	str	r3, [sp]
   32f6c:	e59d3000 	ldr	r3, [sp]
   32f70:	e3a02ef9 	mov	r2, #3984	; 0xf90
   32f74:	e282200f 	add	r2, r2, #15	; 0xf
   32f78:	e1530002 	cmp	r3, r2
   32f7c:	da000000 	ble	32f84 <vga_clear+0x28>
   32f80:	ea00000b 	b	32fb4 <vga_clear+0x58>
   32f84:	e59f2024 	ldr	r2, [pc, #24]	; 32fb0 <vga_clear+0x54>
   32f88:	e5923000 	ldr	r3, [r2]
   32f8c:	e59d2000 	ldr	r2, [sp]
   32f90:	e0833002 	add	r3, r3, r2
   32f94:	e3a02e72 	mov	r2, #1824	; 0x720
   32f98:	e2822672 	add	r2, r2, #119537664	; 0x7200000
   32f9c:	e5832000 	str	r2, [r3]
   32fa0:	e59d3000 	ldr	r3, [sp]
   32fa4:	e2832004 	add	r2, r3, #4	; 0x4
   32fa8:	e58d2000 	str	r2, [sp]
   32fac:	eaffffee 	b	32f6c <vga_clear+0x10>
   32fb0:	000355f4 	streqsh	r5, [r3], -r4
   32fb4:	e28dd004 	add	sp, sp, #4	; 0x4
   32fb8:	e1a0f00e 	mov	pc, lr

00032fbc <vga_write_string>:
   32fbc:	e52de004 	str	lr, [sp, -#4]!
   32fc0:	e24dd00c 	sub	sp, sp, #12	; 0xc
   32fc4:	e58d0008 	str	r0, [sp, #8]
   32fc8:	e58d1004 	str	r1, [sp, #4]
   32fcc:	e3a03000 	mov	r3, #0	; 0x0
   32fd0:	e58d3000 	str	r3, [sp]
   32fd4:	e59d3000 	ldr	r3, [sp]
   32fd8:	e59d2004 	ldr	r2, [sp, #4]
   32fdc:	e1530002 	cmp	r3, r2
   32fe0:	ba000000 	blt	32fe8 <vga_write_string+0x2c>
   32fe4:	ea000088 	b	3320c <vga_write_string+0x250>
   32fe8:	e59d3008 	ldr	r3, [sp, #8]
   32fec:	e59d1000 	ldr	r1, [sp]
   32ff0:	e0832001 	add	r2, r3, r1
   32ff4:	e5d23000 	ldrb	r3, [r2]
   32ff8:	e353000c 	cmp	r3, #12	; 0xc
   32ffc:	0a000036 	beq	330dc <vga_write_string+0x120>
   33000:	e353000c 	cmp	r3, #12	; 0xc
   33004:	ca000009 	bgt	33030 <vga_write_string+0x74>
   33008:	e3530009 	cmp	r3, #9	; 0x9
   3300c:	0a000019 	beq	33078 <vga_write_string+0xbc>
   33010:	e3530009 	cmp	r3, #9	; 0x9
   33014:	ca000002 	bgt	33024 <vga_write_string+0x68>
   33018:	e3530008 	cmp	r3, #8	; 0x8
   3301c:	0a00000a 	beq	3304c <vga_write_string+0x90>
   33020:	ea00005b 	b	33194 <vga_write_string+0x1d8>
   33024:	e353000a 	cmp	r3, #10	; 0xa
   33028:	0a00001b 	beq	3309c <vga_write_string+0xe0>
   3302c:	ea000058 	b	33194 <vga_write_string+0x1d8>
   33030:	e353000d 	cmp	r3, #13	; 0xd
   33034:	0a000023 	beq	330c8 <vga_write_string+0x10c>
   33038:	e35300ff 	cmp	r3, #255	; 0xff
   3303c:	ca000054 	bgt	33194 <vga_write_string+0x1d8>
   33040:	e353001f 	cmp	r3, #31	; 0x1f
   33044:	ba000052 	blt	33194 <vga_write_string+0x1d8>
   33048:	ea000025 	b	330e4 <vga_write_string+0x128>
   3304c:	e59f31a8 	ldr	r3, [pc, #1a8]	; 331fc <vga_write_string+0x240>
   33050:	e5d32000 	ldrb	r2, [r3]
   33054:	e3520000 	cmp	r2, #0	; 0x0
   33058:	0a000005 	beq	33074 <vga_write_string+0xb8>
   3305c:	e59f3198 	ldr	r3, [pc, #198]	; 331fc <vga_write_string+0x240>
   33060:	e59f2194 	ldr	r2, [pc, #194]	; 331fc <vga_write_string+0x240>
   33064:	e5d21000 	ldrb	r1, [r2]
   33068:	e2412001 	sub	r2, r1, #1	; 0x1
   3306c:	e1a01002 	mov	r1, r2
   33070:	e5c31000 	strb	r1, [r3]
   33074:	ea000046 	b	33194 <vga_write_string+0x1d8>
   33078:	e59f317c 	ldr	r3, [pc, #17c]	; 331fc <vga_write_string+0x240>
   3307c:	e59f2178 	ldr	r2, [pc, #178]	; 331fc <vga_write_string+0x240>
   33080:	e5d21000 	ldrb	r1, [r2]
   33084:	e3812007 	orr	r2, r1, #7	; 0x7
   33088:	e1a01002 	mov	r1, r2
   3308c:	e2812001 	add	r2, r1, #1	; 0x1
   33090:	e1a01002 	mov	r1, r2
   33094:	e5c31000 	strb	r1, [r3]
   33098:	ea00003d 	b	33194 <vga_write_string+0x1d8>
   3309c:	e59f315c 	ldr	r3, [pc, #15c]	; 33200 <vga_write_string+0x244>
   330a0:	e59f2158 	ldr	r2, [pc, #158]	; 33200 <vga_write_string+0x244>
   330a4:	e5d21000 	ldrb	r1, [r2]
   330a8:	e2812001 	add	r2, r1, #1	; 0x1
   330ac:	e1a01002 	mov	r1, r2
   330b0:	e5c31000 	strb	r1, [r3]
   330b4:	e59f3140 	ldr	r3, [pc, #140]	; 331fc <vga_write_string+0x240>
   330b8:	e3a02000 	mov	r2, #0	; 0x0
   330bc:	e1a01002 	mov	r1, r2
   330c0:	e5c31000 	strb	r1, [r3]
   330c4:	ea000032 	b	33194 <vga_write_string+0x1d8>
   330c8:	e59f312c 	ldr	r3, [pc, #12c]	; 331fc <vga_write_string+0x240>
   330cc:	e3a02000 	mov	r2, #0	; 0x0
   330d0:	e1a01002 	mov	r1, r2
   330d4:	e5c31000 	strb	r1, [r3]
   330d8:	ea00002d 	b	33194 <vga_write_string+0x1d8>
   330dc:	ebffff9e 	bl	32f5c <vga_clear>
   330e0:	ea00002b 	b	33194 <vga_write_string+0x1d8>
   330e4:	e59f3114 	ldr	r3, [pc, #114]	; 33200 <vga_write_string+0x244>
   330e8:	e5d32000 	ldrb	r2, [r3]
   330ec:	e59f1108 	ldr	r1, [pc, #108]	; 331fc <vga_write_string+0x240>
   330f0:	e5d13000 	ldrb	r3, [r1]
   330f4:	e1a01002 	mov	r1, r2
   330f8:	e1a01101 	mov	r1, r1, lsl #2
   330fc:	e0811002 	add	r1, r1, r2
   33100:	e1a02201 	mov	r2, r1, lsl #4
   33104:	e0823003 	add	r3, r2, r3
   33108:	e1a02003 	mov	r2, r3
   3310c:	e1a03082 	mov	r3, r2, lsl #1
   33110:	e59f10ec 	ldr	r1, [pc, #ec]	; 33204 <vga_write_string+0x248>
   33114:	e5912000 	ldr	r2, [r1]
   33118:	e0833002 	add	r3, r3, r2
   3311c:	e59d2008 	ldr	r2, [sp, #8]
   33120:	e59d1000 	ldr	r1, [sp]
   33124:	e0822001 	add	r2, r2, r1
   33128:	e5d21000 	ldrb	r1, [r2]
   3312c:	e5c31000 	strb	r1, [r3]
   33130:	e59f30c8 	ldr	r3, [pc, #c8]	; 33200 <vga_write_string+0x244>
   33134:	e5d32000 	ldrb	r2, [r3]
   33138:	e59f10bc 	ldr	r1, [pc, #bc]	; 331fc <vga_write_string+0x240>
   3313c:	e5d13000 	ldrb	r3, [r1]
   33140:	e1a01002 	mov	r1, r2
   33144:	e1a01101 	mov	r1, r1, lsl #2
   33148:	e0811002 	add	r1, r1, r2
   3314c:	e1a02201 	mov	r2, r1, lsl #4
   33150:	e0821003 	add	r1, r2, r3
   33154:	e3a03001 	mov	r3, #1	; 0x1
   33158:	e1a02081 	mov	r2, r1, lsl #1
   3315c:	e59fc0a0 	ldr	r12, [pc, #a0]	; 33204 <vga_write_string+0x248>
   33160:	e59c1000 	ldr	r1, [r12]
   33164:	e0822001 	add	r2, r2, r1
   33168:	e0823003 	add	r3, r2, r3
   3316c:	e59f2094 	ldr	r2, [pc, #94]	; 33208 <vga_write_string+0x24c>
   33170:	e5d21000 	ldrb	r1, [r2]
   33174:	e5c31000 	strb	r1, [r3]
   33178:	e59f307c 	ldr	r3, [pc, #7c]	; 331fc <vga_write_string+0x240>
   3317c:	e59f2078 	ldr	r2, [pc, #78]	; 331fc <vga_write_string+0x240>
   33180:	e5d21000 	ldrb	r1, [r2]
   33184:	e2812001 	add	r2, r1, #1	; 0x1
   33188:	e1a01002 	mov	r1, r2
   3318c:	e5c31000 	strb	r1, [r3]
   33190:	eaffffff 	b	33194 <vga_write_string+0x1d8>
   33194:	e59f3060 	ldr	r3, [pc, #60]	; 331fc <vga_write_string+0x240>
   33198:	e5d32000 	ldrb	r2, [r3]
   3319c:	e352004f 	cmp	r2, #79	; 0x4f
   331a0:	9a000009 	bls	331cc <vga_write_string+0x210>
   331a4:	e59f3050 	ldr	r3, [pc, #50]	; 331fc <vga_write_string+0x240>
   331a8:	e3a02000 	mov	r2, #0	; 0x0
   331ac:	e1a01002 	mov	r1, r2
   331b0:	e5c31000 	strb	r1, [r3]
   331b4:	e59f3044 	ldr	r3, [pc, #44]	; 33200 <vga_write_string+0x244>
   331b8:	e59f2040 	ldr	r2, [pc, #40]	; 33200 <vga_write_string+0x244>
   331bc:	e5d21000 	ldrb	r1, [r2]
   331c0:	e2812001 	add	r2, r1, #1	; 0x1
   331c4:	e1a01002 	mov	r1, r2
   331c8:	e5c31000 	strb	r1, [r3]
   331cc:	e59f302c 	ldr	r3, [pc, #2c]	; 33200 <vga_write_string+0x244>
   331d0:	e5d32000 	ldrb	r2, [r3]
   331d4:	e3520018 	cmp	r2, #24	; 0x18
   331d8:	9a000003 	bls	331ec <vga_write_string+0x230>
   331dc:	e59f301c 	ldr	r3, [pc, #1c]	; 33200 <vga_write_string+0x244>
   331e0:	e3a02000 	mov	r2, #0	; 0x0
   331e4:	e1a01002 	mov	r1, r2
   331e8:	e5c31000 	strb	r1, [r3]
   331ec:	e59d3000 	ldr	r3, [sp]
   331f0:	e2832001 	add	r2, r3, #1	; 0x1
   331f4:	e58d2000 	str	r2, [sp]
   331f8:	eaffff75 	b	32fd4 <vga_write_string+0x18>
   331fc:	000355f8 	streqsh	r5, [r3], -r8
   33200:	000355fc 	streqsh	r5, [r3], -r12
   33204:	000355f4 	streqsh	r5, [r3], -r4
   33208:	00035600 	andeq	r5, r3, r0, lsl #12
   3320c:	e28dd00c 	add	sp, sp, #12	; 0xc
   33210:	e8bd8000 	ldmia	sp!, {pc}

00033214 <vga_print>:
   33214:	e52de004 	str	lr, [sp, -#4]!
   33218:	e24dd008 	sub	sp, sp, #8	; 0x8
   3321c:	e58d0004 	str	r0, [sp, #4]
   33220:	e58d1000 	str	r1, [sp]
   33224:	e59d0004 	ldr	r0, [sp, #4]
   33228:	e59d1000 	ldr	r1, [sp]
   3322c:	ebffff62 	bl	32fbc <vga_write_string>
   33230:	ebfffe5a 	bl	32ba0 <vga_setcursor>
   33234:	e28dd008 	add	sp, sp, #8	; 0x8
   33238:	e8bd8000 	ldmia	sp!, {pc}

0003323c <vga_init>:
   3323c:	e52de004 	str	lr, [sp, -#4]!
   33240:	e59f311c 	ldr	r3, [pc, #11c]	; 33364 <vga_init+0x128>
   33244:	e3a02000 	mov	r2, #0	; 0x0
   33248:	e1a01002 	mov	r1, r2
   3324c:	e5c31000 	strb	r1, [r3]
   33250:	e59f3110 	ldr	r3, [pc, #110]	; 33368 <vga_init+0x12c>
   33254:	e3a02000 	mov	r2, #0	; 0x0
   33258:	e1a01002 	mov	r1, r2
   3325c:	e5c31000 	strb	r1, [r3]
   33260:	e59f3104 	ldr	r3, [pc, #104]	; 3336c <vga_init+0x130>
   33264:	e3a02007 	mov	r2, #7	; 0x7
   33268:	e1a01002 	mov	r1, r2
   3326c:	e5c31000 	strb	r1, [r3]
   33270:	e59f30f8 	ldr	r3, [pc, #f8]	; 33370 <vga_init+0x134>
   33274:	e3a0231f 	mov	r2, #2080374784	; 0x7c000000
   33278:	e5832000 	str	r2, [r3]
   3327c:	e59f30f0 	ldr	r3, [pc, #f0]	; 33374 <vga_init+0x138>
   33280:	e3a02102 	mov	r2, #-2147483648	; 0x80000000
   33284:	e282292e 	add	r2, r2, #753664	; 0xb8000
   33288:	e5832000 	str	r2, [r3]
   3328c:	e59f30e4 	ldr	r3, [pc, #e4]	; 33378 <vga_init+0x13c>
   33290:	e3a02102 	mov	r2, #-2147483648	; 0x80000000
   33294:	e282292e 	add	r2, r2, #753664	; 0xb8000
   33298:	e5832000 	str	r2, [r3]
   3329c:	e3a03d0f 	mov	r3, #960	; 0x3c0
   332a0:	e2833003 	add	r3, r3, #3	; 0x3
   332a4:	e59f10c4 	ldr	r1, [pc, #c4]	; 33370 <vga_init+0x134>
   332a8:	e5912000 	ldr	r2, [r1]
   332ac:	e0833002 	add	r3, r3, r2
   332b0:	e3a02001 	mov	r2, #1	; 0x1
   332b4:	e1a01002 	mov	r1, r2
   332b8:	e5c31000 	strb	r1, [r3]
   332bc:	e59f30b8 	ldr	r3, [pc, #b8]	; 3337c <vga_init+0x140>
   332c0:	e3a02000 	mov	r2, #0	; 0x0
   332c4:	e5c32000 	strb	r2, [r3]
   332c8:	e5c32001 	strb	r2, [r3, #1]
   332cc:	e59f30ac 	ldr	r3, [pc, #ac]	; 33380 <vga_init+0x144>
   332d0:	e3a02000 	mov	r2, #0	; 0x0
   332d4:	e5c32000 	strb	r2, [r3]
   332d8:	e5c32001 	strb	r2, [r3, #1]
   332dc:	e59f3098 	ldr	r3, [pc, #98]	; 3337c <vga_init+0x140>
   332e0:	e1a02003 	mov	r2, r3
   332e4:	e5d23000 	ldrb	r3, [r2]
   332e8:	e5d22001 	ldrb	r2, [r2, #1]
   332ec:	e1833402 	orr	r3, r3, r2, lsl #8
   332f0:	e59f2088 	ldr	r2, [pc, #88]	; 33380 <vga_init+0x144>
   332f4:	e1a01002 	mov	r1, r2
   332f8:	e5d12000 	ldrb	r2, [r1]
   332fc:	e5d11001 	ldrb	r1, [r1, #1]
   33300:	e1822401 	orr	r2, r2, r1, lsl #8
   33304:	e59f0078 	ldr	r0, [pc, #78]	; 33384 <vga_init+0x148>
   33308:	e1a01003 	mov	r1, r3
   3330c:	ebfffe3c 	bl	32c04 <vga_load_regs>
   33310:	e3a03d0f 	mov	r3, #960	; 0x3c0
   33314:	e59f1054 	ldr	r1, [pc, #54]	; 33370 <vga_init+0x134>
   33318:	e5912000 	ldr	r2, [r1]
   3331c:	e0833002 	add	r3, r3, r2
   33320:	e3a02020 	mov	r2, #32	; 0x20
   33324:	e1a01002 	mov	r1, r2
   33328:	e5c31000 	strb	r1, [r3]
   3332c:	e3a03ff1 	mov	r3, #964	; 0x3c4
   33330:	e2833002 	add	r3, r3, #2	; 0x2
   33334:	e59f1034 	ldr	r1, [pc, #34]	; 33370 <vga_init+0x134>
   33338:	e5912000 	ldr	r2, [r1]
   3333c:	e0833002 	add	r3, r3, r2
   33340:	e3a020ff 	mov	r2, #255	; 0xff
   33344:	e1a01002 	mov	r1, r2
   33348:	e5c31000 	strb	r1, [r3]
   3334c:	ebffff02 	bl	32f5c <vga_clear>
   33350:	ebfffe12 	bl	32ba0 <vga_setcursor>
   33354:	e59f302c 	ldr	r3, [pc, #2c]	; 33388 <vga_init+0x14c>
   33358:	e59f202c 	ldr	r2, [pc, #2c]	; 3338c <vga_init+0x150>
   3335c:	e5832000 	str	r2, [r3]
   33360:	ea00000a 	b	33390 <vga_init+0x154>
   33364:	000355f8 	streqsh	r5, [r3], -r8
   33368:	000355fc 	streqsh	r5, [r3], -r12
   3336c:	00035600 	andeq	r5, r3, r0, lsl #12
   33370:	000355ec 	andeq	r5, r3, r12, ror #11
   33374:	000355f0 	streqsh	r5, [r3], -r0
   33378:	000355f4 	streqsh	r5, [r3], -r4
   3337c:	00035608 	andeq	r5, r3, r8, lsl #12
   33380:	0003560a 	andeq	r5, r3, r10, lsl #12
   33384:	00035290 	muleq	r3, r0, r2
   33388:	00035a3c 	andeq	r5, r3, r12, lsr r10
   3338c:	00033214 	andeq	r3, r3, r4, lsl r2
   33390:	e8bd8000 	ldmia	sp!, {pc}

00033394 <con_get_params>:
   33394:	e24dd010 	sub	sp, sp, #16	; 0x10
   33398:	e58d000c 	str	r0, [sp, #12]
   3339c:	e58d1008 	str	r1, [sp, #8]
   333a0:	e58d2004 	str	r2, [sp, #4]
   333a4:	e58d3000 	str	r3, [sp]
   333a8:	e59d300c 	ldr	r3, [sp, #12]
   333ac:	e59f2030 	ldr	r2, [pc, #30]	; 333e4 <con_get_params+0x50>
   333b0:	e5d21000 	ldrb	r1, [r2]
   333b4:	e5831000 	str	r1, [r3]
   333b8:	e59d3008 	ldr	r3, [sp, #8]
   333bc:	e59f2024 	ldr	r2, [pc, #24]	; 333e8 <con_get_params+0x54>
   333c0:	e5d21000 	ldrb	r1, [r2]
   333c4:	e5831000 	str	r1, [r3]
   333c8:	e59d3004 	ldr	r3, [sp, #4]
   333cc:	e3a02050 	mov	r2, #80	; 0x50
   333d0:	e5832000 	str	r2, [r3]
   333d4:	e59d3000 	ldr	r3, [sp]
   333d8:	e3a02019 	mov	r2, #25	; 0x19
   333dc:	e5832000 	str	r2, [r3]
   333e0:	ea000001 	b	333ec <con_get_params+0x58>
   333e4:	000355f8 	streqsh	r5, [r3], -r8
   333e8:	000355fc 	streqsh	r5, [r3], -r12
   333ec:	e28dd010 	add	sp, sp, #16	; 0x10
   333f0:	e1a0f00e 	mov	pc, lr

000333f4 <attrib_write>:
   333f4:	e52de004 	str	lr, [sp, -#4]!
   333f8:	e1a03000 	mov	r3, r0
   333fc:	e1a02001 	mov	r2, r1
   33400:	e3a01d0f 	mov	r1, #960	; 0x3c0
   33404:	e59fe028 	ldr	lr, [pc, #28]	; 33434 <attrib_write+0x40>
   33408:	e59ec000 	ldr	r12, [lr]
   3340c:	e081100c 	add	r1, r1, r12
   33410:	e1a0c003 	mov	r12, r3
   33414:	e5c1c000 	strb	r12, [r1]
   33418:	e3a01d0f 	mov	r1, #960	; 0x3c0
   3341c:	e59fe010 	ldr	lr, [pc, #10]	; 33434 <attrib_write+0x40>
   33420:	e59ec000 	ldr	r12, [lr]
   33424:	e081100c 	add	r1, r1, r12
   33428:	e1a0c002 	mov	r12, r2
   3342c:	e5c1c000 	strb	r12, [r1]
   33430:	ea000000 	b	33438 <attrib_write+0x44>
   33434:	000355ec 	andeq	r5, r3, r12, ror #11
   33438:	e8bd8000 	ldmia	sp!, {pc}

0003343c <crtc_write>:
   3343c:	e52de004 	str	lr, [sp, -#4]!
   33440:	e1a03000 	mov	r3, r0
   33444:	e1a02001 	mov	r2, r1
   33448:	e3a01ff5 	mov	r1, #980	; 0x3d4
   3344c:	e59fe02c 	ldr	lr, [pc, #2c]	; 33480 <crtc_write+0x44>
   33450:	e59ec000 	ldr	r12, [lr]
   33454:	e081100c 	add	r1, r1, r12
   33458:	e1a0c003 	mov	r12, r3
   3345c:	e5c1c000 	strb	r12, [r1]
   33460:	e3a01ff5 	mov	r1, #980	; 0x3d4
   33464:	e2811001 	add	r1, r1, #1	; 0x1
   33468:	e59fe010 	ldr	lr, [pc, #10]	; 33480 <crtc_write+0x44>
   3346c:	e59ec000 	ldr	r12, [lr]
   33470:	e081100c 	add	r1, r1, r12
   33474:	e1a0c002 	mov	r12, r2
   33478:	e5c1c000 	strb	r12, [r1]
   3347c:	ea000000 	b	33484 <crtc_write+0x48>
   33480:	000355ec 	andeq	r5, r3, r12, ror #11
   33484:	e8bd8000 	ldmia	sp!, {pc}

00033488 <seq_write>:
   33488:	e52de004 	str	lr, [sp, -#4]!
   3348c:	e1a03000 	mov	r3, r0
   33490:	e1a02001 	mov	r2, r1
   33494:	e3a01ff1 	mov	r1, #964	; 0x3c4
   33498:	e59fe02c 	ldr	lr, [pc, #2c]	; 334cc <seq_write+0x44>
   3349c:	e59ec000 	ldr	r12, [lr]
   334a0:	e081100c 	add	r1, r1, r12
   334a4:	e1a0c003 	mov	r12, r3
   334a8:	e5c1c000 	strb	r12, [r1]
   334ac:	e3a01ff1 	mov	r1, #964	; 0x3c4
   334b0:	e2811001 	add	r1, r1, #1	; 0x1
   334b4:	e59fe010 	ldr	lr, [pc, #10]	; 334cc <seq_write+0x44>
   334b8:	e59ec000 	ldr	r12, [lr]
   334bc:	e081100c 	add	r1, r1, r12
   334c0:	e1a0c002 	mov	r12, r2
   334c4:	e5c1c000 	strb	r12, [r1]
   334c8:	ea000000 	b	334d0 <seq_write+0x48>
   334cc:	000355ec 	andeq	r5, r3, r12, ror #11
   334d0:	e8bd8000 	ldmia	sp!, {pc}

000334d4 <grph_write>:
   334d4:	e52de004 	str	lr, [sp, -#4]!
   334d8:	e1a03000 	mov	r3, r0
   334dc:	e1a02001 	mov	r2, r1
   334e0:	e3a01ff3 	mov	r1, #972	; 0x3cc
   334e4:	e2811002 	add	r1, r1, #2	; 0x2
   334e8:	e59fe02c 	ldr	lr, [pc, #2c]	; 3351c <grph_write+0x48>
   334ec:	e59ec000 	ldr	r12, [lr]
   334f0:	e081100c 	add	r1, r1, r12
   334f4:	e1a0c003 	mov	r12, r3
   334f8:	e5c1c000 	strb	r12, [r1]
   334fc:	e3a01ff3 	mov	r1, #972	; 0x3cc
   33500:	e2811003 	add	r1, r1, #3	; 0x3
   33504:	e59fe010 	ldr	lr, [pc, #10]	; 3351c <grph_write+0x48>
   33508:	e59ec000 	ldr	r12, [lr]
   3350c:	e081100c 	add	r1, r1, r12
   33510:	e1a0c002 	mov	r12, r2
   33514:	e5c1c000 	strb	r12, [r1]
   33518:	ea000000 	b	33520 <grph_write+0x4c>
   3351c:	000355ec 	andeq	r5, r3, r12, ror #11
   33520:	e8bd8000 	ldmia	sp!, {pc}

00033524 <memcpy>:
   33524:	e2522001 	subs	r2, r2, #1	; 0x1
   33528:	4a000002 	bmi	33538 <memcpy+0x14>
   3352c:	e4d13001 	ldrb	r3, [r1], #1
   33530:	e4c03001 	strb	r3, [r0], #1
   33534:	5afffffa 	bpl	33524 <memcpy>
   33538:	e1a0f00e 	mov	pc, lr

0003353c <memzero>:
   3353c:	e1a02001 	mov	r2, r1
   33540:	e3a01000 	mov	r1, #0	; 0x0

00033544 <memset>:
   33544:	e2522001 	subs	r2, r2, #1	; 0x1
   33548:	4a000001 	bmi	33554 <memset+0x10>
   3354c:	e4c01001 	strb	r1, [r0], #1
   33550:	5afffffb 	bpl	33544 <memset>
   33554:	e1a0f00e 	mov	pc, lr

00033558 <memeq>:
   33558:	e3320000 	teq	r2, #0	; 0x0
   3355c:	e4d03001 	ldrb	r3, [r0], #1
   33560:	e4d1c001 	ldrb	r12, [r1], #1
   33564:	e133000c 	teq	r3, r12
   33568:	e2522001 	subs	r2, r2, #1	; 0x1
   3356c:	1afffffa 	bne	3355c <memeq+0x4>
   33570:	e3a00001 	mov	r0, #1	; 0x1
   33574:	e1a0f00e 	mov	pc, lr

00033578 <strcpy>:
   33578:	e4d13001 	ldrb	r3, [r1], #1
   3357c:	e4c03001 	strb	r3, [r0], #1
   33580:	e3330000 	teq	r3, #0	; 0x0
   33584:	1afffffb 	bne	33578 <strcpy>
   33588:	e1a0f00e 	mov	pc, lr

0003358c <strnlen>:
   3358c:	e2803001 	add	r3, r0, #1	; 0x1
   33590:	e4d02001 	ldrb	r2, [r0], #1
   33594:	e3320000 	teq	r2, #0	; 0x0
   33598:	1afffffc 	bne	33590 <strnlen+0x4>
   3359c:	e0400003 	sub	r0, r0, r3
   335a0:	e1a0f00e 	mov	pc, lr

000335a4 <printf>:
   335a4:	e92d000f 	stmdb	sp!, {r0, r1, r2, r3}
   335a8:	e52de004 	str	lr, [sp, -#4]!
   335ac:	e24ddb01 	sub	sp, sp, #1024	; 0x400
   335b0:	e24dd008 	sub	sp, sp, #8	; 0x8
   335b4:	e28d3e41 	add	r3, sp, #1040	; 0x410
   335b8:	e58d3004 	str	r3, [sp, #4]
   335bc:	e28d3008 	add	r3, sp, #8	; 0x8
   335c0:	e1a00003 	mov	r0, r3
   335c4:	e59d140c 	ldr	r1, [sp, #1036]
   335c8:	e59d2004 	ldr	r2, [sp, #4]
   335cc:	eb0001e0 	bl	33d54 <vsprintf>
   335d0:	e1a03000 	mov	r3, r0
   335d4:	e58d3000 	str	r3, [sp]
   335d8:	e59f3030 	ldr	r3, [pc, #30]	; 33610 <printf+0x6c>
   335dc:	e5932000 	ldr	r2, [r3]
   335e0:	e3520000 	cmp	r2, #0	; 0x0
   335e4:	0a000006 	beq	33604 <printf+0x60>
   335e8:	e59f3020 	ldr	r3, [pc, #20]	; 33610 <printf+0x6c>
   335ec:	e28d2008 	add	r2, sp, #8	; 0x8
   335f0:	e5933000 	ldr	r3, [r3]
   335f4:	e1a00002 	mov	r0, r2
   335f8:	e59d1000 	ldr	r1, [sp]
   335fc:	e1a0e00f 	mov	lr, pc
   33600:	e1a0f003 	mov	pc, r3
   33604:	e59d3000 	ldr	r3, [sp]
   33608:	e1a00003 	mov	r0, r3
   3360c:	ea000000 	b	33614 <printf+0x70>
   33610:	00035a3c 	andeq	r5, r3, r12, lsr r10
   33614:	e28dd008 	add	sp, sp, #8	; 0x8
   33618:	e28ddb01 	add	sp, sp, #1024	; 0x400
   3361c:	e8bd4000 	ldmia	sp!, {lr}
   33620:	e28dd010 	add	sp, sp, #16	; 0x10
   33624:	e1a0f00e 	mov	pc, lr

00033628 <debug_printf>:
   33628:	e92d000f 	stmdb	sp!, {r0, r1, r2, r3}
   3362c:	e52de004 	str	lr, [sp, -#4]!
   33630:	e24dd008 	sub	sp, sp, #8	; 0x8
   33634:	e28d3010 	add	r3, sp, #16	; 0x10
   33638:	e58d3004 	str	r3, [sp, #4]
   3363c:	e59f000c 	ldr	r0, [pc, #c]	; 33650 <debug_printf+0x28>
   33640:	e59d100c 	ldr	r1, [sp, #12]
   33644:	e59d2004 	ldr	r2, [sp, #4]
   33648:	eb0001c1 	bl	33d54 <vsprintf>
   3364c:	ea000000 	b	33654 <debug_printf+0x2c>
   33650:	0003560c 	andeq	r5, r3, r12, lsl #12
   33654:	e28dd008 	add	sp, sp, #8	; 0x8
   33658:	e8bd4000 	ldmia	sp!, {lr}
   3365c:	e28dd010 	add	sp, sp, #16	; 0x10
   33660:	e1a0f00e 	mov	pc, lr

00033664 <debug_getc>:
   33664:	e52de004 	str	lr, [sp, -#4]!
   33668:	ebfff2b3 	bl	3013c <ser_getc>
   3366c:	e1a03000 	mov	r3, r0
   33670:	e1a00003 	mov	r0, r3
   33674:	eaffffff 	b	33678 <debug_getc+0x14>
   33678:	e8bd8000 	ldmia	sp!, {pc}

0003367c <simple_strtoul>:
   3367c:	e92d4010 	stmdb	sp!, {r4, lr}
   33680:	e24dd014 	sub	sp, sp, #20	; 0x14
   33684:	e58d0010 	str	r0, [sp, #16]
   33688:	e58d100c 	str	r1, [sp, #12]
   3368c:	e58d2008 	str	r2, [sp, #8]
   33690:	e3a03000 	mov	r3, #0	; 0x0
   33694:	e58d3004 	str	r3, [sp, #4]
   33698:	e59d3008 	ldr	r3, [sp, #8]
   3369c:	e3530000 	cmp	r3, #0	; 0x0
   336a0:	1a00001d 	bne	3371c <simple_strtoul+0xa0>
   336a4:	e3a0300a 	mov	r3, #10	; 0xa
   336a8:	e58d3008 	str	r3, [sp, #8]
   336ac:	e59d3010 	ldr	r3, [sp, #16]
   336b0:	e5d32000 	ldrb	r2, [r3]
   336b4:	e3520030 	cmp	r2, #48	; 0x30
   336b8:	1a000017 	bne	3371c <simple_strtoul+0xa0>
   336bc:	e3a03008 	mov	r3, #8	; 0x8
   336c0:	e58d3008 	str	r3, [sp, #8]
   336c4:	e59d3010 	ldr	r3, [sp, #16]
   336c8:	e2832001 	add	r2, r3, #1	; 0x1
   336cc:	e58d2010 	str	r2, [sp, #16]
   336d0:	e59d3010 	ldr	r3, [sp, #16]
   336d4:	e5d32000 	ldrb	r2, [r3]
   336d8:	e3520078 	cmp	r2, #120	; 0x78
   336dc:	1a00000e 	bne	3371c <simple_strtoul+0xa0>
   336e0:	e59f313c 	ldr	r3, [pc, #13c]	; 33824 <simple_strtoul+0x1a8>
   336e4:	e3a02001 	mov	r2, #1	; 0x1
   336e8:	e59d1010 	ldr	r1, [sp, #16]
   336ec:	e0822001 	add	r2, r2, r1
   336f0:	e5d21000 	ldrb	r1, [r2]
   336f4:	e7d33001 	ldrb	r3, [r3, r1]
   336f8:	e2032044 	and	r2, r3, #68	; 0x44
   336fc:	e20230ff 	and	r3, r2, #255	; 0xff
   33700:	e3530000 	cmp	r3, #0	; 0x0
   33704:	0a000004 	beq	3371c <simple_strtoul+0xa0>
   33708:	e59d3010 	ldr	r3, [sp, #16]
   3370c:	e2832001 	add	r2, r3, #1	; 0x1
   33710:	e58d2010 	str	r2, [sp, #16]
   33714:	e3a03010 	mov	r3, #16	; 0x10
   33718:	e58d3008 	str	r3, [sp, #8]
   3371c:	e1a00000 	nop			(mov r0,r0)
   33720:	e59f30fc 	ldr	r3, [pc, #fc]	; 33824 <simple_strtoul+0x1a8>
   33724:	e59d2010 	ldr	r2, [sp, #16]
   33728:	e5d21000 	ldrb	r1, [r2]
   3372c:	e7d33001 	ldrb	r3, [r3, r1]
   33730:	e2032044 	and	r2, r3, #68	; 0x44
   33734:	e20230ff 	and	r3, r2, #255	; 0xff
   33738:	e3530000 	cmp	r3, #0	; 0x0
   3373c:	0a000024 	beq	337d4 <simple_strtoul+0x158>
   33740:	e59f30dc 	ldr	r3, [pc, #dc]	; 33824 <simple_strtoul+0x1a8>
   33744:	e59d2010 	ldr	r2, [sp, #16]
   33748:	e5d21000 	ldrb	r1, [r2]
   3374c:	e7d33001 	ldrb	r3, [r3, r1]
   33750:	e2032004 	and	r2, r3, #4	; 0x4
   33754:	e20230ff 	and	r3, r2, #255	; 0xff
   33758:	e3530000 	cmp	r3, #0	; 0x0
   3375c:	0a000003 	beq	33770 <simple_strtoul+0xf4>
   33760:	e59d3010 	ldr	r3, [sp, #16]
   33764:	e5d34000 	ldrb	r4, [r3]
   33768:	e2444030 	sub	r4, r4, #48	; 0x30
   3376c:	ea000012 	b	337bc <simple_strtoul+0x140>
   33770:	e59f30ac 	ldr	r3, [pc, #ac]	; 33824 <simple_strtoul+0x1a8>
   33774:	e59d2010 	ldr	r2, [sp, #16]
   33778:	e5d21000 	ldrb	r1, [r2]
   3377c:	e7d33001 	ldrb	r3, [r3, r1]
   33780:	e2032002 	and	r2, r3, #2	; 0x2
   33784:	e20230ff 	and	r3, r2, #255	; 0xff
   33788:	e3530000 	cmp	r3, #0	; 0x0
   3378c:	0a000007 	beq	337b0 <simple_strtoul+0x134>
   33790:	e59d3010 	ldr	r3, [sp, #16]
   33794:	e5d32000 	ldrb	r2, [r3]
   33798:	e1a00002 	mov	r0, r2
   3379c:	eb000395 	bl	345f8 <__toupper>
   337a0:	e1a03000 	mov	r3, r0
   337a4:	e20340ff 	and	r4, r3, #255	; 0xff
   337a8:	e2444037 	sub	r4, r4, #55	; 0x37
   337ac:	ea000002 	b	337bc <simple_strtoul+0x140>
   337b0:	e59d3010 	ldr	r3, [sp, #16]
   337b4:	e5d34000 	ldrb	r4, [r3]
   337b8:	e2444037 	sub	r4, r4, #55	; 0x37
   337bc:	e1a03004 	mov	r3, r4
   337c0:	e58d3000 	str	r3, [sp]
   337c4:	e59d2008 	ldr	r2, [sp, #8]
   337c8:	e1530002 	cmp	r3, r2
   337cc:	3a000001 	bcc	337d8 <simple_strtoul+0x15c>
   337d0:	eaffffff 	b	337d4 <simple_strtoul+0x158>
   337d4:	ea000009 	b	33800 <simple_strtoul+0x184>
   337d8:	e59d3004 	ldr	r3, [sp, #4]
   337dc:	e59d2008 	ldr	r2, [sp, #8]
   337e0:	e0030392 	mul	r3, r2, r3
   337e4:	e59d2000 	ldr	r2, [sp]
   337e8:	e0833002 	add	r3, r3, r2
   337ec:	e58d3004 	str	r3, [sp, #4]
   337f0:	e59d3010 	ldr	r3, [sp, #16]
   337f4:	e2832001 	add	r2, r3, #1	; 0x1
   337f8:	e58d2010 	str	r2, [sp, #16]
   337fc:	eaffffc7 	b	33720 <simple_strtoul+0xa4>
   33800:	e59d300c 	ldr	r3, [sp, #12]
   33804:	e3530000 	cmp	r3, #0	; 0x0
   33808:	0a000002 	beq	33818 <simple_strtoul+0x19c>
   3380c:	e59d300c 	ldr	r3, [sp, #12]
   33810:	e59d2010 	ldr	r2, [sp, #16]
   33814:	e5832000 	str	r2, [r3]
   33818:	e59d3004 	ldr	r3, [sp, #4]
   3381c:	e1a00003 	mov	r0, r3
   33820:	ea000000 	b	33828 <simple_strtoul+0x1ac>
   33824:	00035474 	andeq	r5, r3, r4, ror r4
   33828:	e28dd014 	add	sp, sp, #20	; 0x14
   3382c:	e8bd8010 	ldmia	sp!, {r4, pc}

00033830 <skip_atoi>:
   33830:	e24dd008 	sub	sp, sp, #8	; 0x8
   33834:	e58d0004 	str	r0, [sp, #4]
   33838:	e3a03000 	mov	r3, #0	; 0x0
   3383c:	e58d3000 	str	r3, [sp]
   33840:	e59d3004 	ldr	r3, [sp, #4]
   33844:	e5932000 	ldr	r2, [r3]
   33848:	e5d23000 	ldrb	r3, [r2]
   3384c:	e353002f 	cmp	r3, #47	; 0x2f
   33850:	9a000005 	bls	3386c <skip_atoi+0x3c>
   33854:	e59d3004 	ldr	r3, [sp, #4]
   33858:	e5932000 	ldr	r2, [r3]
   3385c:	e5d23000 	ldrb	r3, [r2]
   33860:	e3530039 	cmp	r3, #57	; 0x39
   33864:	9a000001 	bls	33870 <skip_atoi+0x40>
   33868:	eaffffff 	b	3386c <skip_atoi+0x3c>
   3386c:	ea00000d 	b	338a8 <skip_atoi+0x78>
   33870:	e59d2000 	ldr	r2, [sp]
   33874:	e1a03002 	mov	r3, r2
   33878:	e1a03103 	mov	r3, r3, lsl #2
   3387c:	e0833002 	add	r3, r3, r2
   33880:	e1a01083 	mov	r1, r3, lsl #1
   33884:	e59d3004 	ldr	r3, [sp, #4]
   33888:	e5932000 	ldr	r2, [r3]
   3388c:	e5d2c000 	ldrb	r12, [r2]
   33890:	e081100c 	add	r1, r1, r12
   33894:	e241c030 	sub	r12, r1, #48	; 0x30
   33898:	e58dc000 	str	r12, [sp]
   3389c:	e2822001 	add	r2, r2, #1	; 0x1
   338a0:	e5832000 	str	r2, [r3]
   338a4:	eaffffe5 	b	33840 <skip_atoi+0x10>
   338a8:	e59d3000 	ldr	r3, [sp]
   338ac:	e1a00003 	mov	r0, r3
   338b0:	eaffffff 	b	338b4 <skip_atoi+0x84>
   338b4:	e28dd008 	add	sp, sp, #8	; 0x8
   338b8:	e1a0f00e 	mov	pc, lr

000338bc <number>:
   338bc:	e92d40f0 	stmdb	sp!, {r4, r5, r6, r7, lr}
   338c0:	e24dd064 	sub	sp, sp, #100	; 0x64
   338c4:	e58d0060 	str	r0, [sp, #96]
   338c8:	e58d105c 	str	r1, [sp, #92]
   338cc:	e58d2058 	str	r2, [sp, #88]
   338d0:	e58d3054 	str	r3, [sp, #84]
   338d4:	e59f33d0 	ldr	r3, [pc, #3d0]	; 33cac <number+0x3f0>
   338d8:	e58d3008 	str	r3, [sp, #8]
   338dc:	e59d207c 	ldr	r2, [sp, #124]
   338e0:	e2023040 	and	r3, r2, #64	; 0x40
   338e4:	e3530000 	cmp	r3, #0	; 0x0
   338e8:	0a000001 	beq	338f4 <number+0x38>
   338ec:	e59f33bc 	ldr	r3, [pc, #3bc]	; 33cb0 <number+0x3f4>
   338f0:	e58d3008 	str	r3, [sp, #8]
   338f4:	e59d207c 	ldr	r2, [sp, #124]
   338f8:	e2023010 	and	r3, r2, #16	; 0x10
   338fc:	e3530000 	cmp	r3, #0	; 0x0
   33900:	0a000002 	beq	33910 <number+0x54>
   33904:	e59d307c 	ldr	r3, [sp, #124]
   33908:	e3c32001 	bic	r2, r3, #1	; 0x1
   3390c:	e58d207c 	str	r2, [sp, #124]
   33910:	e59d3058 	ldr	r3, [sp, #88]
   33914:	e3530001 	cmp	r3, #1	; 0x1
   33918:	da000003 	ble	3392c <number+0x70>
   3391c:	e59d3058 	ldr	r3, [sp, #88]
   33920:	e3530024 	cmp	r3, #36	; 0x24
   33924:	ca000000 	bgt	3392c <number+0x70>
   33928:	ea000001 	b	33934 <number+0x78>
   3392c:	e3a00000 	mov	r0, #0	; 0x0
   33930:	ea000105 	b	33d4c <number+0x490>
   33934:	e59d207c 	ldr	r2, [sp, #124]
   33938:	e2023001 	and	r3, r2, #1	; 0x1
   3393c:	e3530000 	cmp	r3, #0	; 0x0
   33940:	0a000002 	beq	33950 <number+0x94>
   33944:	e3a02030 	mov	r2, #48	; 0x30
   33948:	e1a03002 	mov	r3, r2
   3394c:	ea000001 	b	33958 <number+0x9c>
   33950:	e3a02020 	mov	r2, #32	; 0x20
   33954:	e1a03002 	mov	r3, r2
   33958:	e5cd3053 	strb	r3, [sp, #83]
   3395c:	e3a03000 	mov	r3, #0	; 0x0
   33960:	e1a02003 	mov	r2, r3
   33964:	e5cd2052 	strb	r2, [sp, #82]
   33968:	e59d207c 	ldr	r2, [sp, #124]
   3396c:	e2023002 	and	r3, r2, #2	; 0x2
   33970:	e3530000 	cmp	r3, #0	; 0x0
   33974:	0a000021 	beq	33a00 <number+0x144>
   33978:	e59d305c 	ldr	r3, [sp, #92]
   3397c:	e3530000 	cmp	r3, #0	; 0x0
   33980:	aa000009 	bge	339ac <number+0xf0>
   33984:	e3a0302d 	mov	r3, #45	; 0x2d
   33988:	e1a02003 	mov	r2, r3
   3398c:	e5cd2052 	strb	r2, [sp, #82]
   33990:	e59d305c 	ldr	r3, [sp, #92]
   33994:	e2632000 	rsb	r2, r3, #0	; 0x0
   33998:	e58d205c 	str	r2, [sp, #92]
   3399c:	e59d3054 	ldr	r3, [sp, #84]
   339a0:	e2432001 	sub	r2, r3, #1	; 0x1
   339a4:	e58d2054 	str	r2, [sp, #84]
   339a8:	ea000014 	b	33a00 <number+0x144>
   339ac:	e59d207c 	ldr	r2, [sp, #124]
   339b0:	e2023004 	and	r3, r2, #4	; 0x4
   339b4:	e3530000 	cmp	r3, #0	; 0x0
   339b8:	0a000006 	beq	339d8 <number+0x11c>
   339bc:	e3a0302b 	mov	r3, #43	; 0x2b
   339c0:	e1a02003 	mov	r2, r3
   339c4:	e5cd2052 	strb	r2, [sp, #82]
   339c8:	e59d3054 	ldr	r3, [sp, #84]
   339cc:	e2432001 	sub	r2, r3, #1	; 0x1
   339d0:	e58d2054 	str	r2, [sp, #84]
   339d4:	ea000009 	b	33a00 <number+0x144>
   339d8:	e59d207c 	ldr	r2, [sp, #124]
   339dc:	e2023008 	and	r3, r2, #8	; 0x8
   339e0:	e3530000 	cmp	r3, #0	; 0x0
   339e4:	0a000005 	beq	33a00 <number+0x144>
   339e8:	e3a03020 	mov	r3, #32	; 0x20
   339ec:	e1a02003 	mov	r2, r3
   339f0:	e5cd2052 	strb	r2, [sp, #82]
   339f4:	e59d3054 	ldr	r3, [sp, #84]
   339f8:	e2432001 	sub	r2, r3, #1	; 0x1
   339fc:	e58d2054 	str	r2, [sp, #84]
   33a00:	e59d207c 	ldr	r2, [sp, #124]
   33a04:	e2023020 	and	r3, r2, #32	; 0x20
   33a08:	e3530000 	cmp	r3, #0	; 0x0
   33a0c:	0a00000c 	beq	33a44 <number+0x188>
   33a10:	e59d3058 	ldr	r3, [sp, #88]
   33a14:	e3530010 	cmp	r3, #16	; 0x10
   33a18:	1a000003 	bne	33a2c <number+0x170>
   33a1c:	e59d3054 	ldr	r3, [sp, #84]
   33a20:	e2432002 	sub	r2, r3, #2	; 0x2
   33a24:	e58d2054 	str	r2, [sp, #84]
   33a28:	ea000005 	b	33a44 <number+0x188>
   33a2c:	e59d3058 	ldr	r3, [sp, #88]
   33a30:	e3530008 	cmp	r3, #8	; 0x8
   33a34:	1a000002 	bne	33a44 <number+0x188>
   33a38:	e59d3054 	ldr	r3, [sp, #84]
   33a3c:	e2432001 	sub	r2, r3, #1	; 0x1
   33a40:	e58d2054 	str	r2, [sp, #84]
   33a44:	e3a03000 	mov	r3, #0	; 0x0
   33a48:	e58d3004 	str	r3, [sp, #4]
   33a4c:	e59d305c 	ldr	r3, [sp, #92]
   33a50:	e3530000 	cmp	r3, #0	; 0x0
   33a54:	1a000009 	bne	33a80 <number+0x1c4>
   33a58:	e28d3004 	add	r3, sp, #4	; 0x4
   33a5c:	e5932000 	ldr	r2, [r3]
   33a60:	e28d100c 	add	r1, sp, #12	; 0xc
   33a64:	e1a0c002 	mov	r12, r2
   33a68:	e3a0e030 	mov	lr, #48	; 0x30
   33a6c:	e1a0400e 	mov	r4, lr
   33a70:	e7c1400c 	strb	r4, [r1, r12]
   33a74:	e2822001 	add	r2, r2, #1	; 0x1
   33a78:	e5832000 	str	r2, [r3]
   33a7c:	ea00001d 	b	33af8 <number+0x23c>
   33a80:	e1a00000 	nop			(mov r0,r0)
   33a84:	e59d305c 	ldr	r3, [sp, #92]
   33a88:	e3530000 	cmp	r3, #0	; 0x0
   33a8c:	1a000000 	bne	33a94 <number+0x1d8>
   33a90:	ea000018 	b	33af8 <number+0x23c>
   33a94:	e28d4004 	add	r4, sp, #4	; 0x4
   33a98:	e5945000 	ldr	r5, [r4]
   33a9c:	e28d600c 	add	r6, sp, #12	; 0xc
   33aa0:	e1a07005 	mov	r7, r5
   33aa4:	e59d305c 	ldr	r3, [sp, #92]
   33aa8:	e1a00003 	mov	r0, r3
   33aac:	e59d1058 	ldr	r1, [sp, #88]
   33ab0:	eb000308 	bl	346d8 <__umodsi3>
   33ab4:	e1a03000 	mov	r3, r0
   33ab8:	e1a02003 	mov	r2, r3
   33abc:	e58d2000 	str	r2, [sp]
   33ac0:	e59d005c 	ldr	r0, [sp, #92]
   33ac4:	e59d1058 	ldr	r1, [sp, #88]
   33ac8:	eb0002dc 	bl	34640 <__udivsi3>
   33acc:	e1a03000 	mov	r3, r0
   33ad0:	e1a02003 	mov	r2, r3
   33ad4:	e58d205c 	str	r2, [sp, #92]
   33ad8:	e59d3008 	ldr	r3, [sp, #8]
   33adc:	e59d2000 	ldr	r2, [sp]
   33ae0:	e0833002 	add	r3, r3, r2
   33ae4:	e5d32000 	ldrb	r2, [r3]
   33ae8:	e7c62007 	strb	r2, [r6, r7]
   33aec:	e2855001 	add	r5, r5, #1	; 0x1
   33af0:	e5845000 	str	r5, [r4]
   33af4:	eaffffe2 	b	33a84 <number+0x1c8>
   33af8:	e59d3004 	ldr	r3, [sp, #4]
   33afc:	e59d2078 	ldr	r2, [sp, #120]
   33b00:	e1530002 	cmp	r3, r2
   33b04:	da000001 	ble	33b10 <number+0x254>
   33b08:	e59d3004 	ldr	r3, [sp, #4]
   33b0c:	e58d3078 	str	r3, [sp, #120]
   33b10:	e59d3054 	ldr	r3, [sp, #84]
   33b14:	e59d2078 	ldr	r2, [sp, #120]
   33b18:	e0623003 	rsb	r3, r2, r3
   33b1c:	e58d3054 	str	r3, [sp, #84]
   33b20:	e59d207c 	ldr	r2, [sp, #124]
   33b24:	e2023011 	and	r3, r2, #17	; 0x11
   33b28:	e3530000 	cmp	r3, #0	; 0x0
   33b2c:	1a00000f 	bne	33b70 <number+0x2b4>
   33b30:	e28d3054 	add	r3, sp, #84	; 0x54
   33b34:	e5932000 	ldr	r2, [r3]
   33b38:	e1a01002 	mov	r1, r2
   33b3c:	e2422001 	sub	r2, r2, #1	; 0x1
   33b40:	e5832000 	str	r2, [r3]
   33b44:	e3510000 	cmp	r1, #0	; 0x0
   33b48:	ca000000 	bgt	33b50 <number+0x294>
   33b4c:	ea000007 	b	33b70 <number+0x2b4>
   33b50:	e28d3060 	add	r3, sp, #96	; 0x60
   33b54:	e5932000 	ldr	r2, [r3]
   33b58:	e3a01020 	mov	r1, #32	; 0x20
   33b5c:	e1a0c001 	mov	r12, r1
   33b60:	e5c2c000 	strb	r12, [r2]
   33b64:	e2822001 	add	r2, r2, #1	; 0x1
   33b68:	e5832000 	str	r2, [r3]
   33b6c:	eaffffef 	b	33b30 <number+0x274>
   33b70:	e5dd3052 	ldrb	r3, [sp, #82]
   33b74:	e3530000 	cmp	r3, #0	; 0x0
   33b78:	0a000005 	beq	33b94 <number+0x2d8>
   33b7c:	e28d3060 	add	r3, sp, #96	; 0x60
   33b80:	e5932000 	ldr	r2, [r3]
   33b84:	e5dd1052 	ldrb	r1, [sp, #82]
   33b88:	e5c21000 	strb	r1, [r2]
   33b8c:	e2822001 	add	r2, r2, #1	; 0x1
   33b90:	e5832000 	str	r2, [r3]
   33b94:	e59d207c 	ldr	r2, [sp, #124]
   33b98:	e2023020 	and	r3, r2, #32	; 0x20
   33b9c:	e3530000 	cmp	r3, #0	; 0x0
   33ba0:	0a00001d 	beq	33c1c <number+0x360>
   33ba4:	e59d3058 	ldr	r3, [sp, #88]
   33ba8:	e3530008 	cmp	r3, #8	; 0x8
   33bac:	1a000007 	bne	33bd0 <number+0x314>
   33bb0:	e28d3060 	add	r3, sp, #96	; 0x60
   33bb4:	e5932000 	ldr	r2, [r3]
   33bb8:	e3a01030 	mov	r1, #48	; 0x30
   33bbc:	e1a0c001 	mov	r12, r1
   33bc0:	e5c2c000 	strb	r12, [r2]
   33bc4:	e2822001 	add	r2, r2, #1	; 0x1
   33bc8:	e5832000 	str	r2, [r3]
   33bcc:	ea000012 	b	33c1c <number+0x360>
   33bd0:	e59d3058 	ldr	r3, [sp, #88]
   33bd4:	e3530010 	cmp	r3, #16	; 0x10
   33bd8:	1a00000f 	bne	33c1c <number+0x360>
   33bdc:	e28d3060 	add	r3, sp, #96	; 0x60
   33be0:	e5932000 	ldr	r2, [r3]
   33be4:	e3a01030 	mov	r1, #48	; 0x30
   33be8:	e1a0c001 	mov	r12, r1
   33bec:	e5c2c000 	strb	r12, [r2]
   33bf0:	e2822001 	add	r2, r2, #1	; 0x1
   33bf4:	e5832000 	str	r2, [r3]
   33bf8:	e28d3060 	add	r3, sp, #96	; 0x60
   33bfc:	e5932000 	ldr	r2, [r3]
   33c00:	e3a01021 	mov	r1, #33	; 0x21
   33c04:	e59dc008 	ldr	r12, [sp, #8]
   33c08:	e081100c 	add	r1, r1, r12
   33c0c:	e5d1c000 	ldrb	r12, [r1]
   33c10:	e5c2c000 	strb	r12, [r2]
   33c14:	e2822001 	add	r2, r2, #1	; 0x1
   33c18:	e5832000 	str	r2, [r3]
   33c1c:	e59d207c 	ldr	r2, [sp, #124]
   33c20:	e2023010 	and	r3, r2, #16	; 0x10
   33c24:	e3530000 	cmp	r3, #0	; 0x0
   33c28:	1a00000e 	bne	33c68 <number+0x3ac>
   33c2c:	e28d3054 	add	r3, sp, #84	; 0x54
   33c30:	e5932000 	ldr	r2, [r3]
   33c34:	e1a01002 	mov	r1, r2
   33c38:	e2422001 	sub	r2, r2, #1	; 0x1
   33c3c:	e5832000 	str	r2, [r3]
   33c40:	e3510000 	cmp	r1, #0	; 0x0
   33c44:	ca000000 	bgt	33c4c <number+0x390>
   33c48:	ea000006 	b	33c68 <number+0x3ac>
   33c4c:	e28d3060 	add	r3, sp, #96	; 0x60
   33c50:	e5932000 	ldr	r2, [r3]
   33c54:	e5dd1053 	ldrb	r1, [sp, #83]
   33c58:	e5c21000 	strb	r1, [r2]
   33c5c:	e2822001 	add	r2, r2, #1	; 0x1
   33c60:	e5832000 	str	r2, [r3]
   33c64:	eafffff0 	b	33c2c <number+0x370>
   33c68:	e1a00000 	nop			(mov r0,r0)
   33c6c:	e59d2078 	ldr	r2, [sp, #120]
   33c70:	e1a03002 	mov	r3, r2
   33c74:	e2422001 	sub	r2, r2, #1	; 0x1
   33c78:	e58d2078 	str	r2, [sp, #120]
   33c7c:	e59d2004 	ldr	r2, [sp, #4]
   33c80:	e1520003 	cmp	r2, r3
   33c84:	ba000000 	blt	33c8c <number+0x3d0>
   33c88:	ea000009 	b	33cb4 <number+0x3f8>
   33c8c:	e28d3060 	add	r3, sp, #96	; 0x60
   33c90:	e5932000 	ldr	r2, [r3]
   33c94:	e3a01030 	mov	r1, #48	; 0x30
   33c98:	e1a0c001 	mov	r12, r1
   33c9c:	e5c2c000 	strb	r12, [r2]
   33ca0:	e2822001 	add	r2, r2, #1	; 0x1
   33ca4:	e5832000 	str	r2, [r3]
   33ca8:	eaffffef 	b	33c6c <number+0x3b0>
   33cac:	000353ec 	andeq	r5, r3, r12, ror #7
   33cb0:	00035414 	andeq	r5, r3, r4, lsl r4
   33cb4:	e1a00000 	nop			(mov r0,r0)
   33cb8:	e28d3004 	add	r3, sp, #4	; 0x4
   33cbc:	e5932000 	ldr	r2, [r3]
   33cc0:	e1a01002 	mov	r1, r2
   33cc4:	e2422001 	sub	r2, r2, #1	; 0x1
   33cc8:	e5832000 	str	r2, [r3]
   33ccc:	e3510000 	cmp	r1, #0	; 0x0
   33cd0:	ca000000 	bgt	33cd8 <number+0x41c>
   33cd4:	ea000008 	b	33cfc <number+0x440>
   33cd8:	e28d3060 	add	r3, sp, #96	; 0x60
   33cdc:	e5932000 	ldr	r2, [r3]
   33ce0:	e28d100c 	add	r1, sp, #12	; 0xc
   33ce4:	e59dc004 	ldr	r12, [sp, #4]
   33ce8:	e7d1100c 	ldrb	r1, [r1, r12]
   33cec:	e5c21000 	strb	r1, [r2]
   33cf0:	e2822001 	add	r2, r2, #1	; 0x1
   33cf4:	e5832000 	str	r2, [r3]
   33cf8:	eaffffee 	b	33cb8 <number+0x3fc>
   33cfc:	e1a00000 	nop			(mov r0,r0)
   33d00:	e28d3054 	add	r3, sp, #84	; 0x54
   33d04:	e5932000 	ldr	r2, [r3]
   33d08:	e1a01002 	mov	r1, r2
   33d0c:	e2422001 	sub	r2, r2, #1	; 0x1
   33d10:	e5832000 	str	r2, [r3]
   33d14:	e3510000 	cmp	r1, #0	; 0x0
   33d18:	ca000000 	bgt	33d20 <number+0x464>
   33d1c:	ea000007 	b	33d40 <number+0x484>
   33d20:	e28d3060 	add	r3, sp, #96	; 0x60
   33d24:	e5932000 	ldr	r2, [r3]
   33d28:	e3a01020 	mov	r1, #32	; 0x20
   33d2c:	e1a0c001 	mov	r12, r1
   33d30:	e5c2c000 	strb	r12, [r2]
   33d34:	e2822001 	add	r2, r2, #1	; 0x1
   33d38:	e5832000 	str	r2, [r3]
   33d3c:	eaffffef 	b	33d00 <number+0x444>
   33d40:	e59d3060 	ldr	r3, [sp, #96]
   33d44:	e1a00003 	mov	r0, r3
   33d48:	eaffffff 	b	33d4c <number+0x490>
   33d4c:	e28dd064 	add	sp, sp, #100	; 0x64
   33d50:	e8bd80f0 	ldmia	sp!, {r4, r5, r6, r7, pc}

00033d54 <vsprintf>:
   33d54:	e52de004 	str	lr, [sp, -#4]!
   33d58:	e24dd040 	sub	sp, sp, #64	; 0x40
   33d5c:	e58d003c 	str	r0, [sp, #60]
   33d60:	e58d1038 	str	r1, [sp, #56]
   33d64:	e58d2034 	str	r2, [sp, #52]
   33d68:	e59d303c 	ldr	r3, [sp, #60]
   33d6c:	e58d3020 	str	r3, [sp, #32]
   33d70:	e59d3038 	ldr	r3, [sp, #56]
   33d74:	e5d32000 	ldrb	r2, [r3]
   33d78:	e3520000 	cmp	r2, #0	; 0x0
   33d7c:	1a000000 	bne	33d84 <vsprintf+0x30>
   33d80:	ea0001fe 	b	34580 <vsprintf+0x82c>
   33d84:	e59d3038 	ldr	r3, [sp, #56]
   33d88:	e5d32000 	ldrb	r2, [r3]
   33d8c:	e3520025 	cmp	r2, #37	; 0x25
   33d90:	0a000007 	beq	33db4 <vsprintf+0x60>
   33d94:	e28d3020 	add	r3, sp, #32	; 0x20
   33d98:	e5932000 	ldr	r2, [r3]
   33d9c:	e59d1038 	ldr	r1, [sp, #56]
   33da0:	e5d1c000 	ldrb	r12, [r1]
   33da4:	e5c2c000 	strb	r12, [r2]
   33da8:	e2822001 	add	r2, r2, #1	; 0x1
   33dac:	e5832000 	str	r2, [r3]
   33db0:	ea0001ed 	b	3456c <vsprintf+0x818>
   33db4:	e3a03000 	mov	r3, #0	; 0x0
   33db8:	e58d3018 	str	r3, [sp, #24]
   33dbc:	e59d3038 	ldr	r3, [sp, #56]
   33dc0:	e2832001 	add	r2, r3, #1	; 0x1
   33dc4:	e58d2038 	str	r2, [sp, #56]
   33dc8:	e59d3038 	ldr	r3, [sp, #56]
   33dcc:	e5d32000 	ldrb	r2, [r3]
   33dd0:	e2423020 	sub	r3, r2, #32	; 0x20
   33dd4:	e3530010 	cmp	r3, #16	; 0x10
   33dd8:	979ff103 	ldrls	pc, [pc, r3, lsl #2]
   33ddc:	ea000024 	b	33e74 <vsprintf+0x120>
   33de0:	00033e44 	andeq	r3, r3, r4, asr #28
   33de4:	00033e74 	andeq	r3, r3, r4, ror lr
   33de8:	00033e74 	andeq	r3, r3, r4, ror lr
   33dec:	00033e54 	andeq	r3, r3, r4, asr lr
   33df0:	00033e74 	andeq	r3, r3, r4, ror lr
   33df4:	00033e74 	andeq	r3, r3, r4, ror lr
   33df8:	00033e74 	andeq	r3, r3, r4, ror lr
   33dfc:	00033e74 	andeq	r3, r3, r4, ror lr
   33e00:	00033e74 	andeq	r3, r3, r4, ror lr
   33e04:	00033e74 	andeq	r3, r3, r4, ror lr
   33e08:	00033e74 	andeq	r3, r3, r4, ror lr
   33e0c:	00033e34 	andeq	r3, r3, r4, lsr lr
   33e10:	00033e74 	andeq	r3, r3, r4, ror lr
   33e14:	00033e24 	andeq	r3, r3, r4, lsr #28
   33e18:	00033e74 	andeq	r3, r3, r4, ror lr
   33e1c:	00033e74 	andeq	r3, r3, r4, ror lr
   33e20:	00033e64 	andeq	r3, r3, r4, ror #28
   33e24:	e59d3018 	ldr	r3, [sp, #24]
   33e28:	e3832010 	orr	r2, r3, #16	; 0x10
   33e2c:	e58d2018 	str	r2, [sp, #24]
   33e30:	eaffffe1 	b	33dbc <vsprintf+0x68>
   33e34:	e59d3018 	ldr	r3, [sp, #24]
   33e38:	e3832004 	orr	r2, r3, #4	; 0x4
   33e3c:	e58d2018 	str	r2, [sp, #24]
   33e40:	eaffffdd 	b	33dbc <vsprintf+0x68>
   33e44:	e59d3018 	ldr	r3, [sp, #24]
   33e48:	e3832008 	orr	r2, r3, #8	; 0x8
   33e4c:	e58d2018 	str	r2, [sp, #24]
   33e50:	eaffffd9 	b	33dbc <vsprintf+0x68>
   33e54:	e59d3018 	ldr	r3, [sp, #24]
   33e58:	e3832020 	orr	r2, r3, #32	; 0x20
   33e5c:	e58d2018 	str	r2, [sp, #24]
   33e60:	eaffffd5 	b	33dbc <vsprintf+0x68>
   33e64:	e59d3018 	ldr	r3, [sp, #24]
   33e68:	e3832001 	orr	r2, r3, #1	; 0x1
   33e6c:	e58d2018 	str	r2, [sp, #24]
   33e70:	eaffffd1 	b	33dbc <vsprintf+0x68>
   33e74:	e3e03000 	mvn	r3, #0	; 0x0
   33e78:	e58d3014 	str	r3, [sp, #20]
   33e7c:	e59d3038 	ldr	r3, [sp, #56]
   33e80:	e5d32000 	ldrb	r2, [r3]
   33e84:	e352002f 	cmp	r2, #47	; 0x2f
   33e88:	9a000009 	bls	33eb4 <vsprintf+0x160>
   33e8c:	e59d3038 	ldr	r3, [sp, #56]
   33e90:	e5d32000 	ldrb	r2, [r3]
   33e94:	e3520039 	cmp	r2, #57	; 0x39
   33e98:	8a000005 	bhi	33eb4 <vsprintf+0x160>
   33e9c:	e28d3038 	add	r3, sp, #56	; 0x38
   33ea0:	e1a00003 	mov	r0, r3
   33ea4:	ebfffe61 	bl	33830 <skip_atoi>
   33ea8:	e1a03000 	mov	r3, r0
   33eac:	e58d3014 	str	r3, [sp, #20]
   33eb0:	ea000017 	b	33f14 <vsprintf+0x1c0>
   33eb4:	e59d3038 	ldr	r3, [sp, #56]
   33eb8:	e5d32000 	ldrb	r2, [r3]
   33ebc:	e352002a 	cmp	r2, #42	; 0x2a
   33ec0:	1a000013 	bne	33f14 <vsprintf+0x1c0>
   33ec4:	e59d3038 	ldr	r3, [sp, #56]
   33ec8:	e2832001 	add	r2, r3, #1	; 0x1
   33ecc:	e58d2038 	str	r2, [sp, #56]
   33ed0:	e59d3034 	ldr	r3, [sp, #52]
   33ed4:	e2832004 	add	r2, r3, #4	; 0x4
   33ed8:	e58d2034 	str	r2, [sp, #52]
   33edc:	e3e03003 	mvn	r3, #3	; 0x3
   33ee0:	e59d2034 	ldr	r2, [sp, #52]
   33ee4:	e0833002 	add	r3, r3, r2
   33ee8:	e5932000 	ldr	r2, [r3]
   33eec:	e58d2014 	str	r2, [sp, #20]
   33ef0:	e59d3014 	ldr	r3, [sp, #20]
   33ef4:	e3530000 	cmp	r3, #0	; 0x0
   33ef8:	aa000005 	bge	33f14 <vsprintf+0x1c0>
   33efc:	e59d3014 	ldr	r3, [sp, #20]
   33f00:	e2632000 	rsb	r2, r3, #0	; 0x0
   33f04:	e58d2014 	str	r2, [sp, #20]
   33f08:	e59d3018 	ldr	r3, [sp, #24]
   33f0c:	e3832010 	orr	r2, r3, #16	; 0x10
   33f10:	e58d2018 	str	r2, [sp, #24]
   33f14:	e3e03000 	mvn	r3, #0	; 0x0
   33f18:	e58d3010 	str	r3, [sp, #16]
   33f1c:	e59d3038 	ldr	r3, [sp, #56]
   33f20:	e5d32000 	ldrb	r2, [r3]
   33f24:	e352002e 	cmp	r2, #46	; 0x2e
   33f28:	1a000024 	bne	33fc0 <vsprintf+0x26c>
   33f2c:	e59d3038 	ldr	r3, [sp, #56]
   33f30:	e2832001 	add	r2, r3, #1	; 0x1
   33f34:	e58d2038 	str	r2, [sp, #56]
   33f38:	e59d3038 	ldr	r3, [sp, #56]
   33f3c:	e5d32000 	ldrb	r2, [r3]
   33f40:	e352002f 	cmp	r2, #47	; 0x2f
   33f44:	9a000009 	bls	33f70 <vsprintf+0x21c>
   33f48:	e59d3038 	ldr	r3, [sp, #56]
   33f4c:	e5d32000 	ldrb	r2, [r3]
   33f50:	e3520039 	cmp	r2, #57	; 0x39
   33f54:	8a000005 	bhi	33f70 <vsprintf+0x21c>
   33f58:	e28d3038 	add	r3, sp, #56	; 0x38
   33f5c:	e1a00003 	mov	r0, r3
   33f60:	ebfffe32 	bl	33830 <skip_atoi>
   33f64:	e1a03000 	mov	r3, r0
   33f68:	e58d3010 	str	r3, [sp, #16]
   33f6c:	ea00000e 	b	33fac <vsprintf+0x258>
   33f70:	e59d3038 	ldr	r3, [sp, #56]
   33f74:	e5d32000 	ldrb	r2, [r3]
   33f78:	e352002a 	cmp	r2, #42	; 0x2a
   33f7c:	1a00000a 	bne	33fac <vsprintf+0x258>
   33f80:	e59d3038 	ldr	r3, [sp, #56]
   33f84:	e2832001 	add	r2, r3, #1	; 0x1
   33f88:	e58d2038 	str	r2, [sp, #56]
   33f8c:	e59d3034 	ldr	r3, [sp, #52]
   33f90:	e2832004 	add	r2, r3, #4	; 0x4
   33f94:	e58d2034 	str	r2, [sp, #52]
   33f98:	e3e03003 	mvn	r3, #3	; 0x3
   33f9c:	e59d2034 	ldr	r2, [sp, #52]
   33fa0:	e0833002 	add	r3, r3, r2
   33fa4:	e5932000 	ldr	r2, [r3]
   33fa8:	e58d2010 	str	r2, [sp, #16]
   33fac:	e59d3010 	ldr	r3, [sp, #16]
   33fb0:	e3530000 	cmp	r3, #0	; 0x0
   33fb4:	aa000001 	bge	33fc0 <vsprintf+0x26c>
   33fb8:	e3a03000 	mov	r3, #0	; 0x0
   33fbc:	e58d3010 	str	r3, [sp, #16]
   33fc0:	e3e03000 	mvn	r3, #0	; 0x0
   33fc4:	e58d300c 	str	r3, [sp, #12]
   33fc8:	e59d3038 	ldr	r3, [sp, #56]
   33fcc:	e5d32000 	ldrb	r2, [r3]
   33fd0:	e3520068 	cmp	r2, #104	; 0x68
   33fd4:	0a000008 	beq	33ffc <vsprintf+0x2a8>
   33fd8:	e59d3038 	ldr	r3, [sp, #56]
   33fdc:	e5d32000 	ldrb	r2, [r3]
   33fe0:	e352006c 	cmp	r2, #108	; 0x6c
   33fe4:	0a000004 	beq	33ffc <vsprintf+0x2a8>
   33fe8:	e59d3038 	ldr	r3, [sp, #56]
   33fec:	e5d32000 	ldrb	r2, [r3]
   33ff0:	e352004c 	cmp	r2, #76	; 0x4c
   33ff4:	0a000000 	beq	33ffc <vsprintf+0x2a8>
   33ff8:	ea000005 	b	34014 <vsprintf+0x2c0>
   33ffc:	e59d3038 	ldr	r3, [sp, #56]
   34000:	e5d32000 	ldrb	r2, [r3]
   34004:	e58d200c 	str	r2, [sp, #12]
   34008:	e59d3038 	ldr	r3, [sp, #56]
   3400c:	e2832001 	add	r2, r3, #1	; 0x1
   34010:	e58d2038 	str	r2, [sp, #56]
   34014:	e3a0300a 	mov	r3, #10	; 0xa
   34018:	e58d3024 	str	r3, [sp, #36]
   3401c:	e59d3038 	ldr	r3, [sp, #56]
   34020:	e5d32000 	ldrb	r2, [r3]
   34024:	e2423058 	sub	r3, r2, #88	; 0x58
   34028:	e3530020 	cmp	r3, #32	; 0x20
   3402c:	979ff103 	ldrls	pc, [pc, r3, lsl #2]
   34030:	ea0000e6 	b	343d0 <vsprintf+0x67c>
   34034:	000343a8 	andeq	r4, r3, r8, lsr #7
   34038:	000343d0 	streqsb	r4, [r3], -r0
   3403c:	000343d0 	streqsb	r4, [r3], -r0
   34040:	000343d0 	streqsb	r4, [r3], -r0
   34044:	000343d0 	streqsb	r4, [r3], -r0
   34048:	000343d0 	streqsb	r4, [r3], -r0
   3404c:	000343d0 	streqsb	r4, [r3], -r0
   34050:	000343d0 	streqsb	r4, [r3], -r0
   34054:	000343d0 	streqsb	r4, [r3], -r0
   34058:	000343d0 	streqsb	r4, [r3], -r0
   3405c:	000343d0 	streqsb	r4, [r3], -r0
   34060:	000340b8 	streqh	r4, [r3], -r8
   34064:	000343c0 	andeq	r4, r3, r0, asr #7
   34068:	000343d0 	streqsb	r4, [r3], -r0
   3406c:	000343d0 	streqsb	r4, [r3], -r0
   34070:	000343d0 	streqsb	r4, [r3], -r0
   34074:	000343d0 	streqsb	r4, [r3], -r0
   34078:	000343c0 	andeq	r4, r3, r0, asr #7
   3407c:	000343d0 	streqsb	r4, [r3], -r0
   34080:	000343d0 	streqsb	r4, [r3], -r0
   34084:	000343d0 	streqsb	r4, [r3], -r0
   34088:	000343d0 	streqsb	r4, [r3], -r0
   3408c:	00034320 	andeq	r4, r3, r0, lsr #6
   34090:	0003439c 	muleq	r3, r12, r3
   34094:	000342b8 	streqh	r4, [r3], -r8
   34098:	000343d0 	streqsb	r4, [r3], -r0
   3409c:	000343d0 	streqsb	r4, [r3], -r0
   340a0:	00034178 	andeq	r4, r3, r8, ror r1
   340a4:	000343d0 	streqsb	r4, [r3], -r0
   340a8:	000343cc 	andeq	r4, r3, r12, asr #7
   340ac:	000343d0 	streqsb	r4, [r3], -r0
   340b0:	000343d0 	streqsb	r4, [r3], -r0
   340b4:	000343b4 	streqh	r4, [r3], -r4
   340b8:	e59d2018 	ldr	r2, [sp, #24]
   340bc:	e2023010 	and	r3, r2, #16	; 0x10
   340c0:	e3530000 	cmp	r3, #0	; 0x0
   340c4:	1a00000e 	bne	34104 <vsprintf+0x3b0>
   340c8:	e59d2014 	ldr	r2, [sp, #20]
   340cc:	e2423001 	sub	r3, r2, #1	; 0x1
   340d0:	e1a02003 	mov	r2, r3
   340d4:	e58d2014 	str	r2, [sp, #20]
   340d8:	e3520000 	cmp	r2, #0	; 0x0
   340dc:	ca000000 	bgt	340e4 <vsprintf+0x390>
   340e0:	ea000007 	b	34104 <vsprintf+0x3b0>
   340e4:	e28d3020 	add	r3, sp, #32	; 0x20
   340e8:	e5932000 	ldr	r2, [r3]
   340ec:	e3a01020 	mov	r1, #32	; 0x20
   340f0:	e1a0c001 	mov	r12, r1
   340f4:	e5c2c000 	strb	r12, [r2]
   340f8:	e2822001 	add	r2, r2, #1	; 0x1
   340fc:	e5832000 	str	r2, [r3]
   34100:	eafffff0 	b	340c8 <vsprintf+0x374>
   34104:	e28d2020 	add	r2, sp, #32	; 0x20
   34108:	e5921000 	ldr	r1, [r2]
   3410c:	e59d3034 	ldr	r3, [sp, #52]
   34110:	e283c004 	add	r12, r3, #4	; 0x4
   34114:	e58dc034 	str	r12, [sp, #52]
   34118:	e1a03001 	mov	r3, r1
   3411c:	e2811001 	add	r1, r1, #1	; 0x1
   34120:	e5821000 	str	r1, [r2]
   34124:	e3e02003 	mvn	r2, #3	; 0x3
   34128:	e59dc034 	ldr	r12, [sp, #52]
   3412c:	e082100c 	add	r1, r2, r12
   34130:	e5d12000 	ldrb	r2, [r1]
   34134:	e5c32000 	strb	r2, [r3]
   34138:	e59d2014 	ldr	r2, [sp, #20]
   3413c:	e2423001 	sub	r3, r2, #1	; 0x1
   34140:	e1a02003 	mov	r2, r3
   34144:	e58d2014 	str	r2, [sp, #20]
   34148:	e3520000 	cmp	r2, #0	; 0x0
   3414c:	ca000000 	bgt	34154 <vsprintf+0x400>
   34150:	ea000007 	b	34174 <vsprintf+0x420>
   34154:	e28d3020 	add	r3, sp, #32	; 0x20
   34158:	e5932000 	ldr	r2, [r3]
   3415c:	e3a01020 	mov	r1, #32	; 0x20
   34160:	e1a0c001 	mov	r12, r1
   34164:	e5c2c000 	strb	r12, [r2]
   34168:	e2822001 	add	r2, r2, #1	; 0x1
   3416c:	e5832000 	str	r2, [r3]
   34170:	eafffff0 	b	34138 <vsprintf+0x3e4>
   34174:	ea0000fc 	b	3456c <vsprintf+0x818>
   34178:	e59d3034 	ldr	r3, [sp, #52]
   3417c:	e2832004 	add	r2, r3, #4	; 0x4
   34180:	e58d2034 	str	r2, [sp, #52]
   34184:	e3e03003 	mvn	r3, #3	; 0x3
   34188:	e59d2034 	ldr	r2, [sp, #52]
   3418c:	e0833002 	add	r3, r3, r2
   34190:	e5932000 	ldr	r2, [r3]
   34194:	e58d201c 	str	r2, [sp, #28]
   34198:	e59d301c 	ldr	r3, [sp, #28]
   3419c:	e3530000 	cmp	r3, #0	; 0x0
   341a0:	1a000001 	bne	341ac <vsprintf+0x458>
   341a4:	e59f33d0 	ldr	r3, [pc, #3d0]	; 3457c <vsprintf+0x828>
   341a8:	e58d301c 	str	r3, [sp, #28]
   341ac:	e59d001c 	ldr	r0, [sp, #28]
   341b0:	e59d1010 	ldr	r1, [sp, #16]
   341b4:	ebfffcf4 	bl	3358c <strnlen>
   341b8:	e1a03000 	mov	r3, r0
   341bc:	e58d3030 	str	r3, [sp, #48]
   341c0:	e59d2018 	ldr	r2, [sp, #24]
   341c4:	e2023010 	and	r3, r2, #16	; 0x10
   341c8:	e3530000 	cmp	r3, #0	; 0x0
   341cc:	1a000010 	bne	34214 <vsprintf+0x4c0>
   341d0:	e28d2014 	add	r2, sp, #20	; 0x14
   341d4:	e5921000 	ldr	r1, [r2]
   341d8:	e1a03001 	mov	r3, r1
   341dc:	e2411001 	sub	r1, r1, #1	; 0x1
   341e0:	e5821000 	str	r1, [r2]
   341e4:	e59d2030 	ldr	r2, [sp, #48]
   341e8:	e1520003 	cmp	r2, r3
   341ec:	ba000000 	blt	341f4 <vsprintf+0x4a0>
   341f0:	ea000007 	b	34214 <vsprintf+0x4c0>
   341f4:	e28d3020 	add	r3, sp, #32	; 0x20
   341f8:	e5932000 	ldr	r2, [r3]
   341fc:	e3a01020 	mov	r1, #32	; 0x20
   34200:	e1a0c001 	mov	r12, r1
   34204:	e5c2c000 	strb	r12, [r2]
   34208:	e2822001 	add	r2, r2, #1	; 0x1
   3420c:	e5832000 	str	r2, [r3]
   34210:	eaffffee 	b	341d0 <vsprintf+0x47c>
   34214:	e1a00000 	nop			(mov r0,r0)
   34218:	e3a03000 	mov	r3, #0	; 0x0
   3421c:	e58d3028 	str	r3, [sp, #40]
   34220:	e59d3028 	ldr	r3, [sp, #40]
   34224:	e59d2030 	ldr	r2, [sp, #48]
   34228:	e1530002 	cmp	r3, r2
   3422c:	ba000000 	blt	34234 <vsprintf+0x4e0>
   34230:	ea00000d 	b	3426c <vsprintf+0x518>
   34234:	e28d3020 	add	r3, sp, #32	; 0x20
   34238:	e5932000 	ldr	r2, [r3]
   3423c:	e28d101c 	add	r1, sp, #28	; 0x1c
   34240:	e591c000 	ldr	r12, [r1]
   34244:	e5dce000 	ldrb	lr, [r12]
   34248:	e5c2e000 	strb	lr, [r2]
   3424c:	e28cc001 	add	r12, r12, #1	; 0x1
   34250:	e581c000 	str	r12, [r1]
   34254:	e2822001 	add	r2, r2, #1	; 0x1
   34258:	e5832000 	str	r2, [r3]
   3425c:	e59d3028 	ldr	r3, [sp, #40]
   34260:	e2832001 	add	r2, r3, #1	; 0x1
   34264:	e58d2028 	str	r2, [sp, #40]
   34268:	eaffffec 	b	34220 <vsprintf+0x4cc>
   3426c:	e1a00000 	nop			(mov r0,r0)
   34270:	e28d2014 	add	r2, sp, #20	; 0x14
   34274:	e5921000 	ldr	r1, [r2]
   34278:	e1a03001 	mov	r3, r1
   3427c:	e2411001 	sub	r1, r1, #1	; 0x1
   34280:	e5821000 	str	r1, [r2]
   34284:	e59d2030 	ldr	r2, [sp, #48]
   34288:	e1520003 	cmp	r2, r3
   3428c:	ba000000 	blt	34294 <vsprintf+0x540>
   34290:	ea000007 	b	342b4 <vsprintf+0x560>
   34294:	e28d3020 	add	r3, sp, #32	; 0x20
   34298:	e5932000 	ldr	r2, [r3]
   3429c:	e3a01020 	mov	r1, #32	; 0x20
   342a0:	e1a0c001 	mov	r12, r1
   342a4:	e5c2c000 	strb	r12, [r2]
   342a8:	e2822001 	add	r2, r2, #1	; 0x1
   342ac:	e5832000 	str	r2, [r3]
   342b0:	eaffffee 	b	34270 <vsprintf+0x51c>
   342b4:	ea0000ac 	b	3456c <vsprintf+0x818>
   342b8:	e59d3014 	ldr	r3, [sp, #20]
   342bc:	e3730001 	cmn	r3, #1	; 0x1
   342c0:	1a000004 	bne	342d8 <vsprintf+0x584>
   342c4:	e3a03008 	mov	r3, #8	; 0x8
   342c8:	e58d3014 	str	r3, [sp, #20]
   342cc:	e59d3018 	ldr	r3, [sp, #24]
   342d0:	e3832001 	orr	r2, r3, #1	; 0x1
   342d4:	e58d2018 	str	r2, [sp, #24]
   342d8:	e59d3034 	ldr	r3, [sp, #52]
   342dc:	e2832004 	add	r2, r3, #4	; 0x4
   342e0:	e58d2034 	str	r2, [sp, #52]
   342e4:	e3e03003 	mvn	r3, #3	; 0x3
   342e8:	e59d2034 	ldr	r2, [sp, #52]
   342ec:	e0833002 	add	r3, r3, r2
   342f0:	e59d2010 	ldr	r2, [sp, #16]
   342f4:	e58d2000 	str	r2, [sp]
   342f8:	e59d2018 	ldr	r2, [sp, #24]
   342fc:	e58d2004 	str	r2, [sp, #4]
   34300:	e59d0020 	ldr	r0, [sp, #32]
   34304:	e5931000 	ldr	r1, [r3]
   34308:	e3a02010 	mov	r2, #16	; 0x10
   3430c:	e59d3014 	ldr	r3, [sp, #20]
   34310:	ebfffd69 	bl	338bc <number>
   34314:	e1a03000 	mov	r3, r0
   34318:	e58d3020 	str	r3, [sp, #32]
   3431c:	ea000092 	b	3456c <vsprintf+0x818>
   34320:	e59d300c 	ldr	r3, [sp, #12]
   34324:	e353006c 	cmp	r3, #108	; 0x6c
   34328:	1a00000d 	bne	34364 <vsprintf+0x610>
   3432c:	e59d3034 	ldr	r3, [sp, #52]
   34330:	e2832004 	add	r2, r3, #4	; 0x4
   34334:	e58d2034 	str	r2, [sp, #52]
   34338:	e3e03003 	mvn	r3, #3	; 0x3
   3433c:	e59d2034 	ldr	r2, [sp, #52]
   34340:	e0833002 	add	r3, r3, r2
   34344:	e5932000 	ldr	r2, [r3]
   34348:	e58d2008 	str	r2, [sp, #8]
   3434c:	e59d3008 	ldr	r3, [sp, #8]
   34350:	e59d2020 	ldr	r2, [sp, #32]
   34354:	e59d103c 	ldr	r1, [sp, #60]
   34358:	e0612002 	rsb	r2, r1, r2
   3435c:	e5832000 	str	r2, [r3]
   34360:	ea00000c 	b	34398 <vsprintf+0x644>
   34364:	e59d3034 	ldr	r3, [sp, #52]
   34368:	e2832004 	add	r2, r3, #4	; 0x4
   3436c:	e58d2034 	str	r2, [sp, #52]
   34370:	e3e03003 	mvn	r3, #3	; 0x3
   34374:	e59d2034 	ldr	r2, [sp, #52]
   34378:	e0833002 	add	r3, r3, r2
   3437c:	e5932000 	ldr	r2, [r3]
   34380:	e58d2008 	str	r2, [sp, #8]
   34384:	e59d3008 	ldr	r3, [sp, #8]
   34388:	e59d2020 	ldr	r2, [sp, #32]
   3438c:	e59d103c 	ldr	r1, [sp, #60]
   34390:	e0612002 	rsb	r2, r1, r2
   34394:	e5832000 	str	r2, [r3]
   34398:	ea000073 	b	3456c <vsprintf+0x818>
   3439c:	e3a03008 	mov	r3, #8	; 0x8
   343a0:	e58d3024 	str	r3, [sp, #36]
   343a4:	ea000024 	b	3443c <vsprintf+0x6e8>
   343a8:	e59d3018 	ldr	r3, [sp, #24]
   343ac:	e3832040 	orr	r2, r3, #64	; 0x40
   343b0:	e58d2018 	str	r2, [sp, #24]
   343b4:	e3a03010 	mov	r3, #16	; 0x10
   343b8:	e58d3024 	str	r3, [sp, #36]
   343bc:	ea00001e 	b	3443c <vsprintf+0x6e8>
   343c0:	e59d3018 	ldr	r3, [sp, #24]
   343c4:	e3832002 	orr	r2, r3, #2	; 0x2
   343c8:	e58d2018 	str	r2, [sp, #24]
   343cc:	ea00001a 	b	3443c <vsprintf+0x6e8>
   343d0:	e59d3038 	ldr	r3, [sp, #56]
   343d4:	e5d32000 	ldrb	r2, [r3]
   343d8:	e3520025 	cmp	r2, #37	; 0x25
   343dc:	0a000006 	beq	343fc <vsprintf+0x6a8>
   343e0:	e28d3020 	add	r3, sp, #32	; 0x20
   343e4:	e5932000 	ldr	r2, [r3]
   343e8:	e3a01025 	mov	r1, #37	; 0x25
   343ec:	e1a0c001 	mov	r12, r1
   343f0:	e5c2c000 	strb	r12, [r2]
   343f4:	e2822001 	add	r2, r2, #1	; 0x1
   343f8:	e5832000 	str	r2, [r3]
   343fc:	e59d3038 	ldr	r3, [sp, #56]
   34400:	e5d32000 	ldrb	r2, [r3]
   34404:	e3520000 	cmp	r2, #0	; 0x0
   34408:	0a000007 	beq	3442c <vsprintf+0x6d8>
   3440c:	e28d3020 	add	r3, sp, #32	; 0x20
   34410:	e5932000 	ldr	r2, [r3]
   34414:	e59d1038 	ldr	r1, [sp, #56]
   34418:	e5d1c000 	ldrb	r12, [r1]
   3441c:	e5c2c000 	strb	r12, [r2]
   34420:	e2822001 	add	r2, r2, #1	; 0x1
   34424:	e5832000 	str	r2, [r3]
   34428:	ea000002 	b	34438 <vsprintf+0x6e4>
   3442c:	e59d3038 	ldr	r3, [sp, #56]
   34430:	e2432001 	sub	r2, r3, #1	; 0x1
   34434:	e58d2038 	str	r2, [sp, #56]
   34438:	ea00004b 	b	3456c <vsprintf+0x818>
   3443c:	e59d300c 	ldr	r3, [sp, #12]
   34440:	e353006c 	cmp	r3, #108	; 0x6c
   34444:	1a000008 	bne	3446c <vsprintf+0x718>
   34448:	e59d3034 	ldr	r3, [sp, #52]
   3444c:	e2832004 	add	r2, r3, #4	; 0x4
   34450:	e58d2034 	str	r2, [sp, #52]
   34454:	e3e03003 	mvn	r3, #3	; 0x3
   34458:	e59d2034 	ldr	r2, [sp, #52]
   3445c:	e0833002 	add	r3, r3, r2
   34460:	e5932000 	ldr	r2, [r3]
   34464:	e58d202c 	str	r2, [sp, #44]
   34468:	ea000034 	b	34540 <vsprintf+0x7ec>
   3446c:	e59d300c 	ldr	r3, [sp, #12]
   34470:	e3530068 	cmp	r3, #104	; 0x68
   34474:	1a00001c 	bne	344ec <vsprintf+0x798>
   34478:	e59d2018 	ldr	r2, [sp, #24]
   3447c:	e2023002 	and	r3, r2, #2	; 0x2
   34480:	e3530000 	cmp	r3, #0	; 0x0
   34484:	0a00000c 	beq	344bc <vsprintf+0x768>
   34488:	e59d3034 	ldr	r3, [sp, #52]
   3448c:	e2832004 	add	r2, r3, #4	; 0x4
   34490:	e58d2034 	str	r2, [sp, #52]
   34494:	e3e03003 	mvn	r3, #3	; 0x3
   34498:	e59d2034 	ldr	r2, [sp, #52]
   3449c:	e0833002 	add	r3, r3, r2
   344a0:	e1a02003 	mov	r2, r3
   344a4:	e5d23000 	ldrb	r3, [r2]
   344a8:	e5d22001 	ldrb	r2, [r2, #1]
   344ac:	e1a01c02 	mov	r1, r2, lsl #24
   344b0:	e1833841 	orr	r3, r3, r1, asr #16
   344b4:	e58d302c 	str	r3, [sp, #44]
   344b8:	ea00000a 	b	344e8 <vsprintf+0x794>
   344bc:	e59d3034 	ldr	r3, [sp, #52]
   344c0:	e2832004 	add	r2, r3, #4	; 0x4
   344c4:	e58d2034 	str	r2, [sp, #52]
   344c8:	e3e03003 	mvn	r3, #3	; 0x3
   344cc:	e59d2034 	ldr	r2, [sp, #52]
   344d0:	e0833002 	add	r3, r3, r2
   344d4:	e1a02003 	mov	r2, r3
   344d8:	e5d23000 	ldrb	r3, [r2]
   344dc:	e5d22001 	ldrb	r2, [r2, #1]
   344e0:	e1833402 	orr	r3, r3, r2, lsl #8
   344e4:	e58d302c 	str	r3, [sp, #44]
   344e8:	ea000014 	b	34540 <vsprintf+0x7ec>
   344ec:	e59d2018 	ldr	r2, [sp, #24]
   344f0:	e2023002 	and	r3, r2, #2	; 0x2
   344f4:	e3530000 	cmp	r3, #0	; 0x0
   344f8:	0a000008 	beq	34520 <vsprintf+0x7cc>
   344fc:	e59d3034 	ldr	r3, [sp, #52]
   34500:	e2832004 	add	r2, r3, #4	; 0x4
   34504:	e58d2034 	str	r2, [sp, #52]
   34508:	e3e03003 	mvn	r3, #3	; 0x3
   3450c:	e59d2034 	ldr	r2, [sp, #52]
   34510:	e0833002 	add	r3, r3, r2
   34514:	e5932000 	ldr	r2, [r3]
   34518:	e58d202c 	str	r2, [sp, #44]
   3451c:	ea000007 	b	34540 <vsprintf+0x7ec>
   34520:	e59d3034 	ldr	r3, [sp, #52]
   34524:	e2832004 	add	r2, r3, #4	; 0x4
   34528:	e58d2034 	str	r2, [sp, #52]
   3452c:	e3e03003 	mvn	r3, #3	; 0x3
   34530:	e59d2034 	ldr	r2, [sp, #52]
   34534:	e0833002 	add	r3, r3, r2
   34538:	e5932000 	ldr	r2, [r3]
   3453c:	e58d202c 	str	r2, [sp, #44]
   34540:	e59d3010 	ldr	r3, [sp, #16]
   34544:	e58d3000 	str	r3, [sp]
   34548:	e59d3018 	ldr	r3, [sp, #24]
   3454c:	e58d3004 	str	r3, [sp, #4]
   34550:	e59d0020 	ldr	r0, [sp, #32]
   34554:	e59d102c 	ldr	r1, [sp, #44]
   34558:	e59d2024 	ldr	r2, [sp, #36]
   3455c:	e59d3014 	ldr	r3, [sp, #20]
   34560:	ebfffcd5 	bl	338bc <number>
   34564:	e1a03000 	mov	r3, r0
   34568:	e58d3020 	str	r3, [sp, #32]
   3456c:	e59d3038 	ldr	r3, [sp, #56]
   34570:	e2832001 	add	r2, r3, #1	; 0x1
   34574:	e58d2038 	str	r2, [sp, #56]
   34578:	eafffdfc 	b	33d70 <vsprintf+0x1c>
   3457c:	0003543c 	andeq	r5, r3, r12, lsr r4
   34580:	e59d3020 	ldr	r3, [sp, #32]
   34584:	e3a02000 	mov	r2, #0	; 0x0
   34588:	e1a01002 	mov	r1, r2
   3458c:	e5c31000 	strb	r1, [r3]
   34590:	e59d3020 	ldr	r3, [sp, #32]
   34594:	e59d203c 	ldr	r2, [sp, #60]
   34598:	e0623003 	rsb	r3, r2, r3
   3459c:	e1a00003 	mov	r0, r3
   345a0:	eaffffff 	b	345a4 <vsprintf+0x850>
   345a4:	e28dd040 	add	sp, sp, #64	; 0x40
   345a8:	e8bd8000 	ldmia	sp!, {pc}

000345ac <sprintf>:
   345ac:	e92d000e 	stmdb	sp!, {r1, r2, r3}
   345b0:	e52de004 	str	lr, [sp, -#4]!
   345b4:	e24dd00c 	sub	sp, sp, #12	; 0xc
   345b8:	e58d0008 	str	r0, [sp, #8]
   345bc:	e28d3014 	add	r3, sp, #20	; 0x14
   345c0:	e58d3004 	str	r3, [sp, #4]
   345c4:	e59d0008 	ldr	r0, [sp, #8]
   345c8:	e59d1010 	ldr	r1, [sp, #16]
   345cc:	e59d2004 	ldr	r2, [sp, #4]
   345d0:	ebfffddf 	bl	33d54 <vsprintf>
   345d4:	e1a03000 	mov	r3, r0
   345d8:	e58d3000 	str	r3, [sp]
   345dc:	e59d3000 	ldr	r3, [sp]
   345e0:	e1a00003 	mov	r0, r3
   345e4:	eaffffff 	b	345e8 <sprintf+0x3c>
   345e8:	e28dd00c 	add	sp, sp, #12	; 0xc
   345ec:	e8bd4000 	ldmia	sp!, {lr}
   345f0:	e28dd00c 	add	sp, sp, #12	; 0xc
   345f4:	e1a0f00e 	mov	pc, lr

000345f8 <__toupper>:
   345f8:	e1a03000 	mov	r3, r0
   345fc:	e20320ff 	and	r2, r3, #255	; 0xff
   34600:	e1a03002 	mov	r3, r2
   34604:	e59f202c 	ldr	r2, [pc, #2c]	; 34638 <__toupper+0x40>
   34608:	e7d21003 	ldrb	r1, [r2, r3]
   3460c:	e2012002 	and	r2, r1, #2	; 0x2
   34610:	e20210ff 	and	r1, r2, #255	; 0xff
   34614:	e3510000 	cmp	r1, #0	; 0x0
   34618:	0a000003 	beq	3462c <__toupper+0x34>
   3461c:	e1a02003 	mov	r2, r3
   34620:	e2421020 	sub	r1, r2, #32	; 0x20
   34624:	e20120ff 	and	r2, r1, #255	; 0xff
   34628:	e1a03002 	mov	r3, r2
   3462c:	e1a02003 	mov	r2, r3
   34630:	e1a00002 	mov	r0, r2
   34634:	ea000000 	b	3463c <__toupper+0x44>
   34638:	00035474 	andeq	r5, r3, r4, ror r4
   3463c:	e1a0f00e 	mov	pc, lr

00034640 <__udivsi3>:
   34640:	e3510000 	cmp	r1, #0	; 0x0
   34644:	0a00001f 	beq	346c8 <Ldiv0>
   34648:	e3a03001 	mov	r3, #1	; 0x1
   3464c:	e3a02000 	mov	r2, #0	; 0x0
   34650:	e1500001 	cmp	r0, r1
   34654:	3a000019 	bcc	346c0 <Lgot_result>

00034658 <Loop1>:
   34658:	e3510201 	cmp	r1, #268435456	; 0x10000000
   3465c:	31510000 	cmpcc	r1, r0
   34660:	31a01201 	movcc	r1, r1, lsl #4
   34664:	31a03203 	movcc	r3, r3, lsl #4
   34668:	3afffffa 	bcc	34658 <Loop1>

0003466c <Lbignum>:
   3466c:	e3510102 	cmp	r1, #-2147483648	; 0x80000000
   34670:	31510000 	cmpcc	r1, r0
   34674:	31a01081 	movcc	r1, r1, lsl #1
   34678:	31a03083 	movcc	r3, r3, lsl #1
   3467c:	3afffffa 	bcc	3466c <Lbignum>

00034680 <Loop3>:
   34680:	e1500001 	cmp	r0, r1
   34684:	20400001 	subcs	r0, r0, r1
   34688:	21822003 	orrcs	r2, r2, r3
   3468c:	e15000a1 	cmp	r0, r1, lsr #1
   34690:	204000a1 	subcs	r0, r0, r1, lsr #1
   34694:	218220a3 	orrcs	r2, r2, r3, lsr #1
   34698:	e1500121 	cmp	r0, r1, lsr #2
   3469c:	20400121 	subcs	r0, r0, r1, lsr #2
   346a0:	21822123 	orrcs	r2, r2, r3, lsr #2
   346a4:	e15001a1 	cmp	r0, r1, lsr #3
   346a8:	204001a1 	subcs	r0, r0, r1, lsr #3
   346ac:	218221a3 	orrcs	r2, r2, r3, lsr #3
   346b0:	e3500000 	cmp	r0, #0	; 0x0
   346b4:	11b03223 	movnes	r3, r3, lsr #4
   346b8:	11a01221 	movne	r1, r1, lsr #4
   346bc:	1affffef 	bne	34680 <Loop3>

000346c0 <Lgot_result>:
   346c0:	e1a00002 	mov	r0, r2
   346c4:	e1a0f00e 	mov	pc, lr

000346c8 <Ldiv0>:
   346c8:	e52de004 	str	lr, [sp, -#4]!
   346cc:	eb00002e 	bl	3478c <__div0>
   346d0:	e3a00000 	mov	r0, #0	; 0x0
   346d4:	e8bd8000 	ldmia	sp!, {pc}

000346d8 <__umodsi3>:
   346d8:	e3510000 	cmp	r1, #0	; 0x0
   346dc:	0a000026 	beq	3477c <Ldiv0>
   346e0:	e3a03001 	mov	r3, #1	; 0x1
   346e4:	e1500001 	cmp	r0, r1
   346e8:	31a0f00e 	movcc	pc, lr

000346ec <Loop1>:
   346ec:	e3510201 	cmp	r1, #268435456	; 0x10000000
   346f0:	31510000 	cmpcc	r1, r0
   346f4:	31a01201 	movcc	r1, r1, lsl #4
   346f8:	31a03203 	movcc	r3, r3, lsl #4
   346fc:	3afffffa 	bcc	346ec <Loop1>

00034700 <Lbignum>:
   34700:	e3510102 	cmp	r1, #-2147483648	; 0x80000000
   34704:	31510000 	cmpcc	r1, r0
   34708:	31a01081 	movcc	r1, r1, lsl #1
   3470c:	31a03083 	movcc	r3, r3, lsl #1
   34710:	3afffffa 	bcc	34700 <Lbignum>

00034714 <Loop3>:
   34714:	e3a02000 	mov	r2, #0	; 0x0
   34718:	e1500001 	cmp	r0, r1
   3471c:	20400001 	subcs	r0, r0, r1
   34720:	e15000a1 	cmp	r0, r1, lsr #1
   34724:	204000a1 	subcs	r0, r0, r1, lsr #1
   34728:	218220e3 	orrcs	r2, r2, r3, ror #1
   3472c:	e1500121 	cmp	r0, r1, lsr #2
   34730:	20400121 	subcs	r0, r0, r1, lsr #2
   34734:	21822163 	orrcs	r2, r2, r3, ror #2
   34738:	e15001a1 	cmp	r0, r1, lsr #3
   3473c:	204001a1 	subcs	r0, r0, r1, lsr #3
   34740:	218221e3 	orrcs	r2, r2, r3, ror #3
   34744:	e1a0c003 	mov	r12, r3
   34748:	e3500000 	cmp	r0, #0	; 0x0
   3474c:	11b03223 	movnes	r3, r3, lsr #4
   34750:	11a01221 	movne	r1, r1, lsr #4
   34754:	1affffee 	bne	34714 <Loop3>
   34758:	e212220e 	ands	r2, r2, #-536870912	; 0xe0000000
   3475c:	01a0f00e 	moveq	pc, lr
   34760:	e11201ec 	tst	r2, r12, ror #3
   34764:	108001a1 	addne	r0, r0, r1, lsr #3
   34768:	e112016c 	tst	r2, r12, ror #2
   3476c:	10800121 	addne	r0, r0, r1, lsr #2
   34770:	e11200ec 	tst	r2, r12, ror #1
   34774:	108000a1 	addne	r0, r0, r1, lsr #1
   34778:	e1a0f00e 	mov	pc, lr

0003477c <Ldiv0>:
   3477c:	e52de004 	str	lr, [sp, -#4]!
   34780:	eb000001 	bl	3478c <__div0>
   34784:	e3a00000 	mov	r0, #0	; 0x0
   34788:	e8bd8000 	ldmia	sp!, {pc}

0003478c <__div0>:
   3478c:	e92d4002 	stmdb	sp!, {r1, lr}
   34790:	ef900014 	swi	0x00900014
   34794:	e3700ffa 	cmn	r0, #1000	; 0x3e8
   34798:	28bd8002 	ldmcsia	sp!, {r1, pc}
   3479c:	e3a01008 	mov	r1, #8	; 0x8
   347a0:	ef900025 	swi	0x00900025
   347a4:	e8bd8002 	ldmia	sp!, {r1, pc}
   347a8:	20202020 	eorcs	r2, r0, r0, lsr #32
   347ac:	4b202020 	blmi	83c834 <_end+0x806df4>
   347b0:	44532042 	ldrmib	r2, [r3], -#66
   347b4:	204d4152 	subcs	r4, sp, r2, asr r1
   347b8:	00004b4f 	andeq	r4, r0, pc, asr #22
   347bc:	6d654d0a 	stcvsl	13, cr4, [r5, -#40]!
   347c0:	2079726f 	rsbcss	r7, r9, pc, ror #4
   347c4:	6f727265 	swivs	0x00727265
   347c8:	65642072 	strvsb	r2, [r4, -#114]!
   347cc:	74636574 	strvcbt	r6, [r3], -#1396
   347d0:	61206465 	teqvs	r0, r5, ror #8
   347d4:	64612074 	strvsbt	r2, [r1], -#116
   347d8:	73657264 	cmnvc	r5, #1073741830	; 0x40000006
   347dc:	78302073 	ldmvcda	r0!, {r0, r1, r4, r5, r6, sp}
   347e0:	58383025 	ldmplda	r8!, {r0, r2, r5, r12, sp}
   347e4:	00000000 	andeq	r0, r0, r0
   347e8:	6436250d 	ldrvst	r2, [r6], -#1293
   347ec:	00000000 	andeq	r0, r0, r0
   347f0:	61636f4c 	cmnvs	r3, r12, asr #30
   347f4:	676e6974 	undefined
   347f8:	6f6f6220 	swivs	0x006f6220
   347fc:	6c626174 	stfvse	f6, [r2], -#464
   34800:	65642065 	strvsb	r2, [r4, -#101]!
   34804:	65636976 	strvsb	r6, [r3, -#2422]!
   34808:	00203a73 	eoreq	r3, r0, r3, ror r10
   3480c:	7325202c 	teqvc	r5, #44	; 0x2c
   34810:	00000000 	andeq	r0, r0, r0
   34814:	00007325 	andeq	r7, r0, r5, lsr #6
   34818:	0000000a 	andeq	r0, r0, r10
   3481c:	656e6f6e 	strvsb	r6, [lr, -#3950]!
   34820:	0000000a 	andeq	r0, r0, r10
   34824:	41534245 	cmpmi	r3, r5, asr #4
   34828:	20353832 	eorcss	r3, r5, r2, lsr r8
   3482c:	756e694c 	strvcb	r6, [lr, -#2380]!
   34830:	49422078 	stmmidb	r2, {r3, r4, r5, r6, sp}^
   34834:	7620534f 	strvct	r5, [r0], -pc, asr #6
   34838:	30302e31 	eorccs	r2, r0, r1, lsr lr
   3483c:	29632820 	stmcsdb	r3!, {r5, r11, sp}^
   34840:	39393120 	ldmccdb	r9!, {r5, r8, r12, sp}
   34844:	39312d38 	ldmccdb	r1!, {r3, r4, r5, r8, r10, r11, sp}
   34848:	52203939 	eorpl	r3, r0, #933888	; 0xe4000
   3484c:	65737375 	ldrvsb	r7, [r3, -#885]!
   34850:	4b206c6c 	blmi	84fa08 <_end+0x819fc8>
   34854:	20676e69 	rsbcs	r6, r7, r9, ror #28
   34858:	6b6d7228 	blvs	1b91100 <_end+0x1b5b6c0>
   3485c:	6d726140 	ldfvse	f6, [r2, -#256]!
   34860:	6e696c2e 	cdpvs	12, 6, cr6, cr9, cr14, {1}
   34864:	6f2e7875 	swivs	0x002e7875
   34868:	752e6772 	strvc	r6, [lr, -#1906]!
   3486c:	000a296b 	andeq	r2, r10, r11, ror #18
   34870:	69797254 	ldmvsdb	r9!, {r2, r4, r6, r9, r12, sp, lr}^
   34874:	2520676e 	strcs	r6, [r0, -#1902]!
   34878:	2e2e2e73 	mcrcs	14, 1, r2, cr14, cr3, {3}
   3487c:	0000000a 	andeq	r0, r0, r10
   34880:	20776f4e 	rsbcss	r6, r7, lr, asr #30
   34884:	746f6f62 	strvcbt	r6, [pc], #f62	; 3488c <__div0+0x100>
   34888:	20676e69 	rsbcs	r6, r7, r9, ror #28
   3488c:	67616d69 	strvsb	r6, [r1, -r9, ror #26]!
   34890:	2e2e2e65 	cdpcs	14, 2, cr2, cr14, cr5, {3}
   34894:	0000000a 	andeq	r0, r0, r10
   34898:	202d2d20 	eorcs	r2, sp, r0, lsr #26
   3489c:	74737953 	ldrvcbt	r7, [r3], -#2387
   348a0:	48206d65 	stmmida	r0!, {r0, r2, r5, r6, r8, r10, r11, sp, lr}
   348a4:	65746c61 	ldrvsb	r6, [r4, -#3169]!
   348a8:	00000064 	andeq	r0, r0, r4, rrx
   348ac:	00000000 	andeq	r0, r0, r0
   348b0:	2e643225 	cdpcs	2, 6, cr3, cr4, cr5, {1}
   348b4:	00006425 	andeq	r6, r0, r5, lsr #8
   348b8:	30252020 	eorcc	r2, r5, r0, lsr #32
   348bc:	20205834 	eorcs	r5, r0, r4, lsr r8
   348c0:	34302520 	ldrcct	r2, [r0], -#1312
   348c4:	25202058 	strcs	r2, [r0, -#88]!
   348c8:	20583430 	subcss	r3, r8, r0, lsr r4
   348cc:	25632520 	strcsb	r2, [r3, -#1312]!
   348d0:	00632563 	rsbeq	r2, r3, r3, ror #10
   348d4:	38302520 	ldmccda	r0!, {r5, r8, r10, sp}
   348d8:	00000058 	andeq	r0, r0, r8, asr r0
   348dc:	20202020 	eorcs	r2, r0, r0, lsr #32
   348e0:	20202020 	eorcs	r2, r0, r0, lsr #32
   348e4:	00000020 	andeq	r0, r0, r0, lsr #32
   348e8:	0000000a 	andeq	r0, r0, r10
   348ec:	2d2d2d2d 	stccs	13, cr2, [sp, -#180]!
   348f0:	2d2d2d2d 	stccs	13, cr2, [sp, -#180]!
   348f4:	2d2d2d2d 	stccs	13, cr2, [sp, -#180]!
   348f8:	2d2d2d2d 	stccs	13, cr2, [sp, -#180]!
   348fc:	2d2d2d2d 	stccs	13, cr2, [sp, -#180]!
   34900:	50202d2d 	eorpl	r2, r0, sp, lsr #26
   34904:	43204943 	teqmi	r0, #1097728	; 0x10c000
   34908:	69666e6f 	stmvsdb	r6!, {r0, r1, r2, r3, r5, r6, r9, r10, r11, sp, lr}^
   3490c:	61727567 	cmnvs	r2, r7, ror #10
   34910:	6e6f6974 	mcrvs	9, 3, r6, cr15, cr4, {3}
   34914:	2d2d2d20 	stccs	13, cr2, [sp, -#128]!
   34918:	2d2d2d2d 	stccs	13, cr2, [sp, -#180]!
   3491c:	2d2d2d2d 	stccs	13, cr2, [sp, -#180]!
   34920:	2d2d2d2d 	stccs	13, cr2, [sp, -#180]!
   34924:	2d2d2d2d 	stccs	13, cr2, [sp, -#180]!
   34928:	2d2d2d2d 	stccs	13, cr2, [sp, -#180]!
   3492c:	0000000a 	andeq	r0, r0, r10
   34930:	746f6c53 	strvcbt	r6, [pc], #c53	; 34938 <__div0+0x1ac>
   34934:	6e655620 	cdpvs	6, 6, cr5, cr5, cr0, {1}
   34938:	20726f64 	rsbcss	r6, r2, r4, ror #30
   3493c:	69766544 	ldmvsdb	r6!, {r2, r6, r8, r10, sp, lr}^
   34940:	43206563 	teqmi	r0, #415236096	; 0x18c00000
   34944:	7373616c 	cmnvc	r3, #27	; 0x1b
   34948:	494d4220 	stmmidb	sp, {r5, r9, lr}^
   3494c:	64644120 	strvsbt	r4, [r4], -#288
   34950:	73736572 	cmnvc	r3, #478150656	; 0x1c800000
   34954:	64412030 	strvsb	r2, [r1], -#48
   34958:	73657264 	cmnvc	r5, #1073741830	; 0x40000006
   3495c:	41203173 	teqmi	r0, r3, ror r1
   34960:	65726464 	ldrvsb	r6, [r2, -#1124]!
   34964:	20327373 	eorcss	r7, r2, r3, ror r3
   34968:	736f6942 	cmnvc	pc, #1081344	; 0x108000
   3496c:	0000000a 	andeq	r0, r0, r10
   34970:	2d2d2d2d 	stccs	13, cr2, [sp, -#180]!
   34974:	2d2d2d2d 	stccs	13, cr2, [sp, -#180]!
   34978:	2d2d2d2d 	stccs	13, cr2, [sp, -#180]!
   3497c:	2d2d2d2d 	stccs	13, cr2, [sp, -#180]!
   34980:	2d2d2d2d 	stccs	13, cr2, [sp, -#180]!
   34984:	2d2d2d2d 	stccs	13, cr2, [sp, -#180]!
   34988:	2d2d2d2d 	stccs	13, cr2, [sp, -#180]!
   3498c:	2d2d2d2d 	stccs	13, cr2, [sp, -#180]!
   34990:	2d2d2d2d 	stccs	13, cr2, [sp, -#180]!
   34994:	2d2d2d2d 	stccs	13, cr2, [sp, -#180]!
   34998:	2d2d2d2d 	stccs	13, cr2, [sp, -#180]!
   3499c:	2d2d2d2d 	stccs	13, cr2, [sp, -#180]!
   349a0:	2d2d2d2d 	stccs	13, cr2, [sp, -#180]!
   349a4:	2d2d2d2d 	stccs	13, cr2, [sp, -#180]!
   349a8:	2d2d2d2d 	stccs	13, cr2, [sp, -#180]!
   349ac:	2d2d2d2d 	stccs	13, cr2, [sp, -#180]!
   349b0:	0000000a 	andeq	r0, r0, r10
   349b4:	36332d25 	ldrcct	r2, [r3], -r5, lsr #26
   349b8:	00202c73 	eoreq	r2, r0, r3, ror r12
   349bc:	4d646c25 	stcmil	12, cr6, [r4, -#148]!
   349c0:	25202c42 	strcs	r2, [r0, -#3138]!
   349c4:	53484373 	cmppl	r8, #-872415231	; 0xcc000001
   349c8:	2f64253d 	swics	0x0064253d
   349cc:	252f6425 	strcs	r6, [pc, #fffffbdb]!	; 345af <sprintf+0x3>
   349d0:	00000a64 	andeq	r0, r0, r4, ror #20
   349d4:	2c41424c 	sfmcs	f4, 2, [r1], -#304
   349d8:	00000020 	andeq	r0, r0, r0, lsr #32
   349dc:	00000000 	andeq	r0, r0, r0
   349e0:	63256468 	teqvs	r5, #1744830464	; 0x68000000
   349e4:	7264203a 	rsbvc	r2, r4, #58	; 0x3a
   349e8:	20657669 	rsbcs	r7, r5, r9, ror #12
   349ec:	20746f6e 	rsbcss	r6, r4, lr, ror #30
   349f0:	64616572 	strvsbt	r6, [r1], -#1394
   349f4:	6f662079 	swivs	0x00662079
   349f8:	6f632072 	swivs	0x00632072
   349fc:	6e616d6d 	cdpvs	13, 6, cr6, cr1, cr13, {3}
   34a00:	00000a64 	andeq	r0, r0, r4, ror #20
   34a04:	25646820 	strcsb	r6, [r4, -#2080]!
   34a08:	00203a63 	eoreq	r3, r0, r3, ror #20
   34a0c:	20746f6e 	rsbcss	r6, r4, lr, ror #30
   34a10:	73657270 	cmnvc	r5, #7	; 0x7
   34a14:	0a746e65 	beq	1d503b0 <_end+0x1d1a970>
   34a18:	00000000 	andeq	r0, r0, r0
   34a1c:	58333025 	ldmplda	r3!, {r0, r2, r5, r12, sp}
   34a20:	00002020 	andeq	r2, r0, r0, lsr #32
   34a24:	58323025 	ldmplda	r2!, {r0, r2, r5, r12, sp}
   34a28:	00000020 	andeq	r0, r0, r0, lsr #32
   34a2c:	00002020 	andeq	r2, r0, r0, lsr #32
   34a30:	00006325 	andeq	r6, r0, r5, lsr #6
   34a34:	0000000a 	andeq	r0, r0, r10
   34a38:	00656469 	rsbeq	r6, r5, r9, ror #8

00034a3c <cmap_80>:
	...
   34a44:	81a5817e 	movhi	r8, lr, ror r1
   34a48:	7e8199bd 	mcrvc	9, 4, r9, cr1, cr13, {5}
   34a4c:	ffbdff7e 	swinv	0x00bdff7e
   34a50:	7effe7c3 	cdpvc	7, 15, cr14, cr15, cr3, {6}
   34a54:	fefefe3c 	mrcnv	14, 7, pc, cr14, cr12, {1}
   34a58:	0010387c 	andeqs	r3, r0, r12, ror r8
   34a5c:	fe7c3810 	mrcnv	8, 3, r3, cr12, cr0, {0}
   34a60:	0010387c 	andeqs	r3, r0, r12, ror r8
   34a64:	e73c1800 	ldr	r1, [r12, -r0, lsl #16]!
   34a68:	00183ce7 	andeqs	r3, r8, r7, ror #25
	...
   34abc:	7e786000 	cdpvc	0, 7, cr6, cr8, cr0, {0}
   34ac0:	0060787e 	rsbeq	r7, r0, lr, ror r8
   34ac4:	7e1e0600 	cdpvc	6, 1, cr0, cr14, cr0, {0}
   34ac8:	00061e7e 	andeq	r1, r6, lr, ror lr
	...
   34b2c:	3c181800 	ldccc	8, cr1, [r8]
   34b30:	007e7e3c 	rsbeqs	r7, lr, r12, lsr lr
   34b34:	3c7e7e00 	ldcccl	14, cr7, [lr]
   34b38:	0018183c 	andeqs	r1, r8, r12, lsr r8
	...
   34b44:	183c3c18 	ldmneda	r12!, {r3, r4, r10, r11, r12, sp}
   34b48:	00180018 	andeqs	r0, r8, r8, lsl r0
   34b4c:	006c6c6c 	rsbeq	r6, r12, r12, ror #24
   34b50:	00000000 	andeq	r0, r0, r0
   34b54:	367f3636 	undefined
   34b58:	0036367f 	eoreqs	r3, r6, pc, ror r6
   34b5c:	3e683f0c 	cdpcc	15, 6, cr3, cr8, cr12, {0}
   34b60:	00187e0b 	andeqs	r7, r8, r11, lsl #28
   34b64:	180c6660 	stmneda	r12, {r5, r6, r9, r10, sp, lr}
   34b68:	00066630 	andeq	r6, r6, r0, lsr r6
   34b6c:	386c6c38 	stmccda	r12!, {r3, r4, r5, r10, r11, sp, lr}^
   34b70:	003b666d 	eoreqs	r6, r11, sp, ror #12
   34b74:	00181818 	andeqs	r1, r8, r8, lsl r8
   34b78:	00000000 	andeq	r0, r0, r0
   34b7c:	3030180c 	eorccs	r1, r0, r12, lsl #16
   34b80:	000c1830 	andeq	r1, r12, r0, lsr r8
   34b84:	0c0c1830 	stceq	8, cr1, [r12], -#192
   34b88:	0030180c 	eoreqs	r1, r0, r12, lsl #16
   34b8c:	3c7e1800 	ldcccl	8, cr1, [lr]
   34b90:	0000187e 	andeq	r1, r0, lr, ror r8
   34b94:	7e181800 	cdpvc	8, 1, cr1, cr8, cr0, {0}
   34b98:	00001818 	andeq	r1, r0, r8, lsl r8
   34b9c:	00000000 	andeq	r0, r0, r0
   34ba0:	30181800 	andccs	r1, r8, r0, lsl #16
   34ba4:	7e000000 	cdpvc	0, 0, cr0, cr0, cr0, {0}
	...
   34bb0:	00181800 	andeqs	r1, r8, r0, lsl #16
   34bb4:	180c0600 	stmneda	r12, {r9, r10}
   34bb8:	00006030 	andeq	r6, r0, r0, lsr r0
   34bbc:	7e6e663c 	mcrvc	6, 3, r6, cr14, cr12, {1}
   34bc0:	003c6676 	eoreqs	r6, r12, r6, ror r6
   34bc4:	18183818 	ldmneda	r8, {r3, r4, r11, r12, sp}
   34bc8:	007e1818 	rsbeqs	r1, lr, r8, lsl r8
   34bcc:	0c06663c 	stceq	6, cr6, [r6], -#240
   34bd0:	007e3018 	rsbeqs	r3, lr, r8, lsl r0
   34bd4:	1c06663c 	stcne	6, cr6, [r6], -#240
   34bd8:	003c6606 	eoreqs	r6, r12, r6, lsl #12
   34bdc:	6c3c1c0c 	ldcvs	12, cr1, [r12], -#48
   34be0:	000c0c7e 	andeq	r0, r12, lr, ror r12
   34be4:	067c607e 	undefined
   34be8:	003c6606 	eoreqs	r6, r12, r6, lsl #12
   34bec:	7c60301c 	stcvcl	0, cr3, [r0], -#112
   34bf0:	003c6666 	eoreqs	r6, r12, r6, ror #12
   34bf4:	180c067e 	stmneda	r12, {r1, r2, r3, r4, r5, r6, r9, r10}
   34bf8:	00303030 	eoreqs	r3, r0, r0, lsr r0
   34bfc:	3c66663c 	stcccl	6, cr6, [r6], -#240
   34c00:	003c6666 	eoreqs	r6, r12, r6, ror #12
   34c04:	3e66663c 	mcrcc	6, 3, r6, cr6, cr12, {1}
   34c08:	00380c06 	eoreqs	r0, r8, r6, lsl #24
   34c0c:	18180000 	ldmneda	r8, {}
   34c10:	00181800 	andeqs	r1, r8, r0, lsl #16
   34c14:	18180000 	ldmneda	r8, {}
   34c18:	30181800 	andccs	r1, r8, r0, lsl #16
   34c1c:	6030180c 	eorvss	r1, r0, r12, lsl #16
   34c20:	000c1830 	andeq	r1, r12, r0, lsr r8
   34c24:	007e0000 	rsbeqs	r0, lr, r0
   34c28:	0000007e 	andeq	r0, r0, lr, ror r0
   34c2c:	060c1830 	undefined
   34c30:	0030180c 	eoreqs	r1, r0, r12, lsl #16
   34c34:	180c663c 	stmneda	r12, {r2, r3, r4, r5, r9, r10, sp, lr}
   34c38:	00180018 	andeqs	r0, r8, r8, lsl r0
   34c3c:	6a6e663c 	bvs	1bce534 <_end+0x1b98af4>
   34c40:	003c606e 	eoreqs	r6, r12, lr, rrx
   34c44:	7e66663c 	mcrvc	6, 3, r6, cr6, cr12, {1}
   34c48:	00666666 	rsbeq	r6, r6, r6, ror #12
   34c4c:	7c66667c 	stcvcl	6, cr6, [r6], -#496
   34c50:	007c6666 	rsbeqs	r6, r12, r6, ror #12
   34c54:	6060663c 	rsbvs	r6, r0, r12, lsr r6
   34c58:	003c6660 	eoreqs	r6, r12, r0, ror #12
   34c5c:	66666c78 	undefined
   34c60:	00786c66 	rsbeqs	r6, r8, r6, ror #24
   34c64:	7c60607e 	stcvcl	0, cr6, [r0], -#504
   34c68:	007e6060 	rsbeqs	r6, lr, r0, rrx
   34c6c:	7c60607e 	stcvcl	0, cr6, [r0], -#504
   34c70:	00606060 	rsbeq	r6, r0, r0, rrx
   34c74:	6e60663c 	mcrvs	6, 3, r6, cr0, cr12, {1}
   34c78:	003c6666 	eoreqs	r6, r12, r6, ror #12
   34c7c:	7e666666 	cdpvc	6, 6, cr6, cr6, cr6, {3}
   34c80:	00666666 	rsbeq	r6, r6, r6, ror #12
   34c84:	1818187e 	ldmneda	r8, {r1, r2, r3, r4, r5, r6, r11, r12}
   34c88:	007e1818 	rsbeqs	r1, lr, r8, lsl r8
   34c8c:	0c0c0c3e 	stceq	12, cr0, [r12], -#248
   34c90:	00386c0c 	eoreqs	r6, r8, r12, lsl #24
   34c94:	70786c66 	rsbvcs	r6, r8, r6, ror #24
   34c98:	00666c78 	rsbeq	r6, r6, r8, ror r12
   34c9c:	60606060 	rsbvs	r6, r0, r0, rrx
   34ca0:	007e6060 	rsbeqs	r6, lr, r0, rrx
   34ca4:	6b7f7763 	blvs	2012a38 <_end+0x1fdcff8>
   34ca8:	0063636b 	rsbeq	r6, r3, r11, ror #6
   34cac:	7e766666 	cdpvc	6, 7, cr6, cr6, cr6, {3}
   34cb0:	0066666e 	rsbeq	r6, r6, lr, ror #12
   34cb4:	6666663c 	undefined
   34cb8:	003c6666 	eoreqs	r6, r12, r6, ror #12
   34cbc:	7c66667c 	stcvcl	6, cr6, [r6], -#496
   34cc0:	00606060 	rsbeq	r6, r0, r0, rrx
   34cc4:	6666663c 	undefined
   34cc8:	00366c6a 	eoreqs	r6, r6, r10, ror #24
   34ccc:	7c66667c 	stcvcl	6, cr6, [r6], -#496
   34cd0:	0066666c 	rsbeq	r6, r6, r12, ror #12
   34cd4:	3c60663c 	stcccl	6, cr6, [r0], -#240
   34cd8:	003c6606 	eoreqs	r6, r12, r6, lsl #12
   34cdc:	1818187e 	ldmneda	r8, {r1, r2, r3, r4, r5, r6, r11, r12}
   34ce0:	00181818 	andeqs	r1, r8, r8, lsl r8
   34ce4:	66666666 	strvsbt	r6, [r6], -r6, ror #12
   34ce8:	003c6666 	eoreqs	r6, r12, r6, ror #12
   34cec:	66666666 	strvsbt	r6, [r6], -r6, ror #12
   34cf0:	00183c66 	andeqs	r3, r8, r6, ror #24
   34cf4:	6b6b6363 	blvs	1b0da88 <_end+0x1ad8048>
   34cf8:	0063777f 	rsbeq	r7, r3, pc, ror r7
   34cfc:	183c6666 	ldmneda	r12!, {r1, r2, r5, r6, r9, r10, sp, lr}
   34d00:	0066663c 	rsbeq	r6, r6, r12, lsr r6
   34d04:	3c666666 	stcccl	6, cr6, [r6], -#408
   34d08:	00181818 	andeqs	r1, r8, r8, lsl r8
   34d0c:	180c067e 	stmneda	r12, {r1, r2, r3, r4, r5, r6, r9, r10}
   34d10:	007e6030 	rsbeqs	r6, lr, r0, lsr r0
   34d14:	6060607c 	rsbvs	r6, r0, r12, ror r0
   34d18:	007c6060 	rsbeqs	r6, r12, r0, rrx
   34d1c:	18306000 	ldmneda	r0!, {sp, lr}
   34d20:	0000060c 	andeq	r0, r0, r12, lsl #12
   34d24:	0606063e 	undefined
   34d28:	003e0606 	eoreqs	r0, lr, r6, lsl #12
   34d2c:	0000663c 	andeq	r6, r0, r12, lsr r6
	...
   34d38:	ff000000 	swinv	0x00000000
   34d3c:	00001830 	andeq	r1, r0, r0, lsr r8
   34d40:	00000000 	andeq	r0, r0, r0
   34d44:	063c0000 	ldreqt	r0, [r12], -r0
   34d48:	003e663e 	eoreqs	r6, lr, lr, lsr r6
   34d4c:	667c6060 	ldrvsbt	r6, [r12], -r0, rrx
   34d50:	007c6666 	rsbeqs	r6, r12, r6, ror #12
   34d54:	663c0000 	ldrvst	r0, [r12], -r0
   34d58:	003c6660 	eoreqs	r6, r12, r0, ror #12
   34d5c:	663e0606 	ldrvst	r0, [lr], -r6, lsl #12
   34d60:	003e6666 	eoreqs	r6, lr, r6, ror #12
   34d64:	663c0000 	ldrvst	r0, [r12], -r0
   34d68:	003c607e 	eoreqs	r6, r12, lr, ror r0
   34d6c:	7c30301c 	ldcvc	0, cr3, [r0], -#112
   34d70:	00303030 	eoreqs	r3, r0, r0, lsr r0
   34d74:	663e0000 	ldrvst	r0, [lr], -r0
   34d78:	3c063e66 	stccc	14, cr3, [r6], -#408
   34d7c:	667c6060 	ldrvsbt	r6, [r12], -r0, rrx
   34d80:	00666666 	rsbeq	r6, r6, r6, ror #12
   34d84:	18380018 	ldmneda	r8!, {r3, r4}
   34d88:	003c1818 	eoreqs	r1, r12, r8, lsl r8
   34d8c:	18380018 	ldmneda	r8!, {r3, r4}
   34d90:	70181818 	andvcs	r1, r8, r8, lsl r8
   34d94:	6c666060 	stcvsl	0, cr6, [r6], -#384
   34d98:	00666c78 	rsbeq	r6, r6, r8, ror r12
   34d9c:	18181838 	ldmneda	r8, {r3, r4, r5, r11, r12}
   34da0:	003c1818 	eoreqs	r1, r12, r8, lsl r8
   34da4:	7f360000 	swivc	0x00360000
   34da8:	00636b6b 	rsbeq	r6, r3, r11, ror #22
   34dac:	667c0000 	ldrvsbt	r0, [r12], -r0
   34db0:	00666666 	rsbeq	r6, r6, r6, ror #12
   34db4:	663c0000 	ldrvst	r0, [r12], -r0
   34db8:	003c6666 	eoreqs	r6, r12, r6, ror #12
   34dbc:	667c0000 	ldrvsbt	r0, [r12], -r0
   34dc0:	60607c66 	rsbvs	r7, r0, r6, ror #24
   34dc4:	663e0000 	ldrvst	r0, [lr], -r0
   34dc8:	07063e66 	streq	r3, [r6, -r6, ror #28]
   34dcc:	766c0000 	strvcbt	r0, [r12], -r0
   34dd0:	00606060 	rsbeq	r6, r0, r0, rrx
   34dd4:	603e0000 	eorvss	r0, lr, r0
   34dd8:	007c063c 	rsbeqs	r0, r12, r12, lsr r6
   34ddc:	307c3030 	rsbccs	r3, r12, r0, lsr r0
   34de0:	001c3030 	andeqs	r3, r12, r0, lsr r0
   34de4:	66660000 	strvsbt	r0, [r6], -r0
   34de8:	003e6666 	eoreqs	r6, lr, r6, ror #12
   34dec:	66660000 	strvsbt	r0, [r6], -r0
   34df0:	00183c66 	andeqs	r3, r8, r6, ror #24
   34df4:	6b630000 	blvs	18f4dfc <_end+0x18bf3bc>
   34df8:	00367f6b 	eoreqs	r7, r6, r11, ror #30
   34dfc:	3c660000 	stcccl	0, cr0, [r6]
   34e00:	00663c18 	rsbeq	r3, r6, r8, lsl r12
   34e04:	66660000 	strvsbt	r0, [r6], -r0
   34e08:	3c063e66 	stccc	14, cr3, [r6], -#408
   34e0c:	0c7e0000 	ldceql	0, cr0, [lr]
   34e10:	007e3018 	rsbeqs	r3, lr, r8, lsl r0
   34e14:	7018180c 	andvcs	r1, r8, r12, lsl #16
   34e18:	000c1818 	andeq	r1, r12, r8, lsl r8
   34e1c:	18181818 	ldmneda	r8, {r3, r4, r11, r12}
   34e20:	00181818 	andeqs	r1, r8, r8, lsl r8
   34e24:	0e181830 	mrceq	8, 0, r1, cr8, cr0, {1}
   34e28:	00301818 	eoreqs	r1, r0, r8, lsl r8
   34e2c:	00466b31 	subeq	r6, r6, r1, lsr r11
   34e30:	00000000 	andeq	r0, r0, r0
   34e34:	ffffffff 	swinv	0x00ffffff
   34e38:	ffffffff 	swinv	0x00ffffff
	...
   34fbc:	88228822 	stmhida	r2!, {r1, r5, r11, pc}
   34fc0:	88228822 	stmhida	r2!, {r1, r5, r11, pc}
   34fc4:	aa55aa55 	bge	159f920 <_end+0x1569ee0>
   34fc8:	aa55aa55 	bge	159f924 <_end+0x1569ee4>
   34fcc:	77dd77dd 	undefined
   34fd0:	77dd77dd 	undefined
   34fd4:	18181818 	ldmneda	r8, {r3, r4, r11, r12}
   34fd8:	18181818 	ldmneda	r8, {r3, r4, r11, r12}
   34fdc:	f8181818 	ldmnvda	r8, {r3, r4, r11, r12}
   34fe0:	18181818 	ldmneda	r8, {r3, r4, r11, r12}
   34fe4:	18f81818 	ldmneia	r8!, {r3, r4, r11, r12}^
   34fe8:	181818f8 	ldmneda	r8, {r3, r4, r5, r6, r7, r11, r12}
   34fec:	e6666666 	strbt	r6, [r6], -r6, ror #12
   34ff0:	66666666 	strvsbt	r6, [r6], -r6, ror #12
   34ff4:	fe000000 	cdpnv	0, 0, cr0, cr0, cr0, {0}
   34ff8:	66666666 	strvsbt	r6, [r6], -r6, ror #12
   34ffc:	18f80000 	ldmneia	r8!, {}^
   35000:	181818f8 	ldmneda	r8, {r3, r4, r5, r6, r7, r11, r12}
   35004:	06e66666 	streqbt	r6, [r6], r6, ror #12
   35008:	666666e6 	strvsbt	r6, [r6], -r6, ror #13
   3500c:	66666666 	strvsbt	r6, [r6], -r6, ror #12
   35010:	66666666 	strvsbt	r6, [r6], -r6, ror #12
   35014:	06fe0000 	ldreqbt	r0, [lr], r0
   35018:	666666e6 	strvsbt	r6, [r6], -r6, ror #13
   3501c:	06e66666 	streqbt	r6, [r6], r6, ror #12
   35020:	000000fe 	streqsh	r0, [r0], -lr
   35024:	fe666666 	cdpnv	6, 6, cr6, cr6, cr6, {3}
   35028:	00000000 	andeq	r0, r0, r0
   3502c:	18f81818 	ldmneia	r8!, {r3, r4, r11, r12}^
   35030:	000000f8 	streqsh	r0, [r0], -r8
   35034:	f8000000 	stmnvda	r0, {}
   35038:	18181818 	ldmneda	r8, {r3, r4, r11, r12}
   3503c:	1f181818 	swine	0x00181818
   35040:	00000000 	andeq	r0, r0, r0
   35044:	ff181818 	swinv	0x00181818
   35048:	00000000 	andeq	r0, r0, r0
   3504c:	ff000000 	swinv	0x00000000
   35050:	18181818 	ldmneda	r8, {r3, r4, r11, r12}
   35054:	1f181818 	swine	0x00181818
   35058:	18181818 	ldmneda	r8, {r3, r4, r11, r12}
   3505c:	ff000000 	swinv	0x00000000
   35060:	00000000 	andeq	r0, r0, r0
   35064:	ff181818 	swinv	0x00181818
   35068:	18181818 	ldmneda	r8, {r3, r4, r11, r12}
   3506c:	181f1818 	ldmneda	pc, {r3, r4, r11, r12}
   35070:	1818181f 	ldmneda	r8, {r0, r1, r2, r3, r4, r11, r12}
   35074:	67666666 	strvsb	r6, [r6, -r6, ror #12]!
   35078:	66666666 	strvsbt	r6, [r6], -r6, ror #12
   3507c:	60676666 	rsbvs	r6, r7, r6, ror #12
   35080:	0000007f 	andeq	r0, r0, pc, ror r0
   35084:	607f0000 	rsbvss	r0, pc, r0
   35088:	66666667 	strvsbt	r6, [r6], -r7, ror #12
   3508c:	00e76666 	rsceq	r6, r7, r6, ror #12
   35090:	000000ff 	streqsh	r0, [r0], -pc
   35094:	00ff0000 	rsceqs	r0, pc, r0
   35098:	666666e7 	strvsbt	r6, [r6], -r7, ror #13
   3509c:	60676666 	rsbvs	r6, r7, r6, ror #12
   350a0:	66666667 	strvsbt	r6, [r6], -r7, ror #12
   350a4:	00ff0000 	rsceqs	r0, pc, r0
   350a8:	000000ff 	streqsh	r0, [r0], -pc
   350ac:	00e76666 	rsceq	r6, r7, r6, ror #12
   350b0:	666666e7 	strvsbt	r6, [r6], -r7, ror #13
   350b4:	00ff1818 	rsceqs	r1, pc, r8, lsl r8
   350b8:	000000ff 	streqsh	r0, [r0], -pc
   350bc:	ff666666 	swinv	0x00666666
   350c0:	00000000 	andeq	r0, r0, r0
   350c4:	00ff0000 	rsceqs	r0, pc, r0
   350c8:	181818ff 	ldmneda	r8, {r0, r1, r2, r3, r4, r5, r6, r7, r11, r12}
   350cc:	ff000000 	swinv	0x00000000
   350d0:	66666666 	strvsbt	r6, [r6], -r6, ror #12
   350d4:	7f666666 	swivc	0x00666666
   350d8:	00000000 	andeq	r0, r0, r0
   350dc:	181f1818 	ldmneda	pc, {r3, r4, r11, r12}
   350e0:	0000001f 	andeq	r0, r0, pc, lsl r0
   350e4:	181f0000 	ldmneda	pc, {}
   350e8:	1818181f 	ldmneda	r8, {r0, r1, r2, r3, r4, r11, r12}
   350ec:	7f000000 	swivc	0x00000000
   350f0:	66666666 	strvsbt	r6, [r6], -r6, ror #12
   350f4:	ff666666 	swinv	0x00666666
   350f8:	66666666 	strvsbt	r6, [r6], -r6, ror #12
   350fc:	18ff1818 	ldmneia	pc!, {r3, r4, r11, r12}^
   35100:	181818ff 	ldmneda	r8, {r0, r1, r2, r3, r4, r5, r6, r7, r11, r12}
   35104:	f8181818 	ldmnvda	r8, {r3, r4, r11, r12}
   35108:	00000000 	andeq	r0, r0, r0
   3510c:	1f000000 	swine	0x00000000
   35110:	18181818 	ldmneda	r8, {r3, r4, r11, r12}
   35114:	ffffffff 	swinv	0x00ffffff
   35118:	ffffffff 	swinv	0x00ffffff
   3511c:	00000000 	andeq	r0, r0, r0
   35120:	ffffffff 	swinv	0x00ffffff
   35124:	f0f0f0f0 	ldrnvsh	pc, [r0]
   35128:	f0f0f0f0 	ldrnvsh	pc, [r0]
   3512c:	0f0f0f0f 	swieq	0x000f0f0f
   35130:	0f0f0f0f 	swieq	0x000f0f0f
   35134:	ffffffff 	swinv	0x00ffffff
	...

0003523c <s3trio64_card>:
   3523c:	00483802 	subeq	r3, r8, r2, lsl #16
   35240:	00a53902 	adceq	r3, r5, r2, lsl #18
   35244:	00053102 	andeq	r3, r5, r2, lsl #2
   35248:	00403202 	subeq	r3, r0, r2, lsl #4
   3524c:	00003502 	andeq	r3, r0, r2, lsl #10
   35250:	00923602 	addeqs	r3, r2, r2, lsl #12
   35254:	005a3b02 	subeqs	r3, r10, r2, lsl #22
   35258:	00004002 	andeq	r4, r0, r2
   3525c:	00005302 	andeq	r5, r0, r2, lsl #6
   35260:	00585402 	subeqs	r5, r8, r2, lsl #8
   35264:	00005802 	andeq	r5, r0, r2, lsl #16
   35268:	00076002 	andeq	r6, r7, r2
   3526c:	005a3902 	subeqs	r3, r10, r2, lsl #18
   35270:	00003802 	andeq	r3, r0, r2, lsl #16
   35274:	00000008 	andeq	r0, r0, r8

00035278 <cards>:
   35278:	89015333 	stmhidb	r1, {r0, r1, r4, r5, r8, r9, r12, lr}
   3527c:	0003523c 	andeq	r5, r3, r12, lsr r2
   35280:	88805333 	stmhiia	r0, {r0, r1, r4, r5, r8, r9, r12, lr}
   35284:	0003523c 	andeq	r5, r3, r12, lsr r2
	...

00035290 <list>:
   35290:	00010003 	andeq	r0, r1, r3
   35294:	00670005 	rsbeq	r0, r7, r5
   35298:	00000103 	andeq	r0, r0, r3, lsl #2
   3529c:	00040203 	andeq	r0, r4, r3, lsl #4
   352a0:	00000303 	andeq	r0, r0, r3, lsl #6
   352a4:	00070403 	andeq	r0, r7, r3, lsl #8
   352a8:	00030003 	andeq	r0, r3, r3
   352ac:	00000007 	andeq	r0, r0, r7
   352b0:	00000001 	andeq	r0, r0, r1
   352b4:	00000101 	andeq	r0, r0, r1, lsl #2
   352b8:	00000201 	andeq	r0, r0, r1, lsl #4
   352bc:	00000301 	andeq	r0, r0, r1, lsl #6
   352c0:	00020401 	andeq	r0, r2, r1, lsl #8
   352c4:	00000501 	andeq	r0, r0, r1, lsl #10
   352c8:	000c0601 	andeq	r0, r12, r1, lsl #12
   352cc:	00000701 	andeq	r0, r0, r1, lsl #14
   352d0:	00ff0801 	rsceqs	r0, pc, r1, lsl #16
   352d4:	00000006 	andeq	r0, r0, r6
   352d8:	00010003 	andeq	r0, r1, r3
   352dc:	00000103 	andeq	r0, r0, r3, lsl #2
   352e0:	00030203 	andeq	r0, r3, r3, lsl #4
   352e4:	00000303 	andeq	r0, r0, r3, lsl #6
   352e8:	00020403 	andeq	r0, r2, r3, lsl #8
   352ec:	00030003 	andeq	r0, r3, r3
   352f0:	00000401 	andeq	r0, r0, r1, lsl #8
   352f4:	00100501 	andeqs	r0, r0, r1, lsl #10
   352f8:	000e0601 	andeq	r0, lr, r1, lsl #12
   352fc:	005f0002 	subeqs	r0, pc, r2
   35300:	004f0102 	subeq	r0, pc, r2, lsl #2
   35304:	00500202 	subeqs	r0, r0, r2, lsl #4
   35308:	00820302 	addeq	r0, r2, r2, lsl #6
   3530c:	00550402 	subeqs	r0, r5, r2, lsl #8
   35310:	00810502 	addeq	r0, r1, r2, lsl #10
   35314:	00bf0602 	adceqs	r0, pc, r2, lsl #12
   35318:	001f0702 	andeqs	r0, pc, r2, lsl #14
   3531c:	00000802 	andeq	r0, r0, r2, lsl #16
   35320:	004f0902 	subeq	r0, pc, r2, lsl #18
   35324:	000d0a02 	andeq	r0, sp, r2, lsl #20
   35328:	000e0b02 	andeq	r0, lr, r2, lsl #22
   3532c:	00000c02 	andeq	r0, r0, r2, lsl #24
   35330:	00000d02 	andeq	r0, r0, r2, lsl #26
   35334:	00000e02 	andeq	r0, r0, r2, lsl #28
   35338:	00000f02 	andeq	r0, r0, r2, lsl #30
   3533c:	009c1002 	addeqs	r1, r12, r2
   35340:	008e1102 	addeq	r1, lr, r2, lsl #2
   35344:	008f1202 	addeq	r1, pc, r2, lsl #4
   35348:	00281302 	eoreq	r1, r8, r2, lsl #6
   3534c:	001f1402 	andeqs	r1, pc, r2, lsl #8
   35350:	00961502 	addeqs	r1, r6, r2, lsl #10
   35354:	00b91602 	adceqs	r1, r9, r2, lsl #12
   35358:	00a31702 	adceq	r1, r3, r2, lsl #14
   3535c:	00ff1802 	rsceqs	r1, pc, r2, lsl #16
   35360:	00000000 	andeq	r0, r0, r0
   35364:	00010100 	andeq	r0, r1, r0, lsl #2
   35368:	00020200 	andeq	r0, r2, r0, lsl #4
   3536c:	00030300 	andeq	r0, r3, r0, lsl #6
   35370:	00040400 	andeq	r0, r4, r0, lsl #8
   35374:	00050500 	andeq	r0, r5, r0, lsl #10
   35378:	00060600 	andeq	r0, r6, r0, lsl #12
   3537c:	00070700 	andeq	r0, r7, r0, lsl #14
   35380:	00080800 	andeq	r0, r8, r0, lsl #16
   35384:	00090900 	andeq	r0, r9, r0, lsl #18
   35388:	000a0a00 	andeq	r0, r10, r0, lsl #20
   3538c:	000b0b00 	andeq	r0, r11, r0, lsl #22
   35390:	000c0c00 	andeq	r0, r12, r0, lsl #24
   35394:	000d0d00 	andeq	r0, sp, r0, lsl #26
   35398:	000e0e00 	andeq	r0, lr, r0, lsl #28
   3539c:	000f0f00 	andeq	r0, pc, r0, lsl #30
   353a0:	00081000 	andeq	r1, r8, r0
   353a4:	00001100 	andeq	r1, r0, r0, lsl #2
   353a8:	000f1200 	andeq	r1, pc, r0, lsl #4
   353ac:	00081300 	andeq	r1, r8, r0, lsl #6
   353b0:	00001400 	andeq	r1, r0, r0, lsl #8
   353b4:	00000004 	andeq	r0, r0, r4
   353b8:	00000008 	andeq	r0, r0, r8

000353bc <DAC>:
   353bc:	00000000 	andeq	r0, r0, r0
   353c0:	2a002a00 	bcs	3fbc8 <_end+0xa188>
   353c4:	2a2a0000 	bcs	ab53cc <_end+0xa7f98c>
   353c8:	2a00002a 	bcs	35478 <_ctype+0x4>
   353cc:	2a2a2a00 	bcs	abfbd4 <_end+0xa8a194>
   353d0:	2a2a2a00 	bcs	abfbd8 <_end+0xa8a198>
   353d4:	15151515 	ldrne	r1, [r5, -#1301]
   353d8:	3f153f15 	swicc	0x00153f15
   353dc:	3f3f1515 	swicc	0x003f1515
   353e0:	3f15153f 	swicc	0x0015153f
   353e4:	3f3f3f15 	swicc	0x003f3f15
   353e8:	3f3f3f15 	swicc	0x003f3f15
   353ec:	33323130 	teqcc	r2, #12	; 0xc
   353f0:	37363534 	undefined
   353f4:	62613938 	rsbvs	r3, r1, #917504	; 0xe0000
   353f8:	66656463 	strvsbt	r6, [r5], -r3, ror #8
   353fc:	6a696867 	bvs	1a8f5a0 <_end+0x1a59b60>
   35400:	6e6d6c6b 	cdpvs	12, 6, cr6, cr13, cr11, {3}
   35404:	7271706f 	rsbvcs	r7, r1, #111	; 0x6f
   35408:	76757473 	undefined
   3540c:	7a797877 	bvc	1e935f0 <_end+0x1e5dbb0>
   35410:	00000000 	andeq	r0, r0, r0
   35414:	33323130 	teqcc	r2, #12	; 0xc
   35418:	37363534 	undefined
   3541c:	42413938 	submi	r3, r1, #917504	; 0xe0000
   35420:	46454443 	strmib	r4, [r5], -r3, asr #8
   35424:	4a494847 	bmi	1287548 <_end+0x1251b08>
   35428:	4e4d4c4b 	cdpmi	12, 4, cr4, cr13, cr11, {2}
   3542c:	5251504f 	subpls	r5, r1, #79	; 0x4f
   35430:	56555453 	undefined
   35434:	5a595857 	bpl	168b598 <_end+0x1655b58>
   35438:	00000000 	andeq	r0, r0, r0
   3543c:	4c554e3c 	ldcmil	14, cr4, [r5], -#240
   35440:	00003e4c 	andeq	r3, r0, r12, asr #28